
./bomb:     file format elf64-x86-64


Disassembly of section .init:

0000000000400a80 <_init>:
  400a80:	48 83 ec 08          	sub    $0x8,%rsp
  400a84:	48 8b 05 6d 25 20 00 	mov    0x20256d(%rip),%rax        # 602ff8 <_DYNAMIC+0x1d0>
  400a8b:	48 85 c0             	test   %rax,%rax
  400a8e:	74 05                	je     400a95 <_init+0x15>
  400a90:	e8 bb 01 00 00       	callq  400c50 <socket@plt+0x10>
  400a95:	48 83 c4 08          	add    $0x8,%rsp
  400a99:	c3                   	retq   

Disassembly of section .plt:

0000000000400aa0 <getenv@plt-0x10>:
  400aa0:	ff 35 62 25 20 00    	pushq  0x202562(%rip)        # 603008 <_GLOBAL_OFFSET_TABLE_+0x8>
  400aa6:	ff 25 64 25 20 00    	jmpq   *0x202564(%rip)        # 603010 <_GLOBAL_OFFSET_TABLE_+0x10>
  400aac:	0f 1f 40 00          	nopl   0x0(%rax)

0000000000400ab0 <getenv@plt>:
  400ab0:	ff 25 62 25 20 00    	jmpq   *0x202562(%rip)        # 603018 <_GLOBAL_OFFSET_TABLE_+0x18>
  400ab6:	68 00 00 00 00       	pushq  $0x0
  400abb:	e9 e0 ff ff ff       	jmpq   400aa0 <_init+0x20>

0000000000400ac0 <__errno_location@plt>:
  400ac0:	ff 25 5a 25 20 00    	jmpq   *0x20255a(%rip)        # 603020 <_GLOBAL_OFFSET_TABLE_+0x20>
  400ac6:	68 01 00 00 00       	pushq  $0x1
  400acb:	e9 d0 ff ff ff       	jmpq   400aa0 <_init+0x20>

0000000000400ad0 <strcpy@plt>:
  400ad0:	ff 25 52 25 20 00    	jmpq   *0x202552(%rip)        # 603028 <_GLOBAL_OFFSET_TABLE_+0x28>
  400ad6:	68 02 00 00 00       	pushq  $0x2
  400adb:	e9 c0 ff ff ff       	jmpq   400aa0 <_init+0x20>

0000000000400ae0 <puts@plt>:
  400ae0:	ff 25 4a 25 20 00    	jmpq   *0x20254a(%rip)        # 603030 <_GLOBAL_OFFSET_TABLE_+0x30>
  400ae6:	68 03 00 00 00       	pushq  $0x3
  400aeb:	e9 b0 ff ff ff       	jmpq   400aa0 <_init+0x20>

0000000000400af0 <write@plt>:
  400af0:	ff 25 42 25 20 00    	jmpq   *0x202542(%rip)        # 603038 <_GLOBAL_OFFSET_TABLE_+0x38>
  400af6:	68 04 00 00 00       	pushq  $0x4
  400afb:	e9 a0 ff ff ff       	jmpq   400aa0 <_init+0x20>

0000000000400b00 <__stack_chk_fail@plt>:
  400b00:	ff 25 3a 25 20 00    	jmpq   *0x20253a(%rip)        # 603040 <_GLOBAL_OFFSET_TABLE_+0x40>
  400b06:	68 05 00 00 00       	pushq  $0x5
  400b0b:	e9 90 ff ff ff       	jmpq   400aa0 <_init+0x20>

0000000000400b10 <alarm@plt>:
  400b10:	ff 25 32 25 20 00    	jmpq   *0x202532(%rip)        # 603048 <_GLOBAL_OFFSET_TABLE_+0x48>
  400b16:	68 06 00 00 00       	pushq  $0x6
  400b1b:	e9 80 ff ff ff       	jmpq   400aa0 <_init+0x20>

0000000000400b20 <close@plt>:
  400b20:	ff 25 2a 25 20 00    	jmpq   *0x20252a(%rip)        # 603050 <_GLOBAL_OFFSET_TABLE_+0x50>
  400b26:	68 07 00 00 00       	pushq  $0x7
  400b2b:	e9 70 ff ff ff       	jmpq   400aa0 <_init+0x20>

0000000000400b30 <read@plt>:
  400b30:	ff 25 22 25 20 00    	jmpq   *0x202522(%rip)        # 603058 <_GLOBAL_OFFSET_TABLE_+0x58>
  400b36:	68 08 00 00 00       	pushq  $0x8
  400b3b:	e9 60 ff ff ff       	jmpq   400aa0 <_init+0x20>

0000000000400b40 <__libc_start_main@plt>:
  400b40:	ff 25 1a 25 20 00    	jmpq   *0x20251a(%rip)        # 603060 <_GLOBAL_OFFSET_TABLE_+0x60>
  400b46:	68 09 00 00 00       	pushq  $0x9
  400b4b:	e9 50 ff ff ff       	jmpq   400aa0 <_init+0x20>

0000000000400b50 <fgets@plt>:
  400b50:	ff 25 12 25 20 00    	jmpq   *0x202512(%rip)        # 603068 <_GLOBAL_OFFSET_TABLE_+0x68>
  400b56:	68 0a 00 00 00       	pushq  $0xa
  400b5b:	e9 40 ff ff ff       	jmpq   400aa0 <_init+0x20>

0000000000400b60 <signal@plt>:
  400b60:	ff 25 0a 25 20 00    	jmpq   *0x20250a(%rip)        # 603070 <_GLOBAL_OFFSET_TABLE_+0x70>
  400b66:	68 0b 00 00 00       	pushq  $0xb
  400b6b:	e9 30 ff ff ff       	jmpq   400aa0 <_init+0x20>

0000000000400b70 <gethostbyname@plt>:
  400b70:	ff 25 02 25 20 00    	jmpq   *0x202502(%rip)        # 603078 <_GLOBAL_OFFSET_TABLE_+0x78>
  400b76:	68 0c 00 00 00       	pushq  $0xc
  400b7b:	e9 20 ff ff ff       	jmpq   400aa0 <_init+0x20>

0000000000400b80 <__memmove_chk@plt>:
  400b80:	ff 25 fa 24 20 00    	jmpq   *0x2024fa(%rip)        # 603080 <_GLOBAL_OFFSET_TABLE_+0x80>
  400b86:	68 0d 00 00 00       	pushq  $0xd
  400b8b:	e9 10 ff ff ff       	jmpq   400aa0 <_init+0x20>

0000000000400b90 <strtol@plt>:
  400b90:	ff 25 f2 24 20 00    	jmpq   *0x2024f2(%rip)        # 603088 <_GLOBAL_OFFSET_TABLE_+0x88>
  400b96:	68 0e 00 00 00       	pushq  $0xe
  400b9b:	e9 00 ff ff ff       	jmpq   400aa0 <_init+0x20>

0000000000400ba0 <fflush@plt>:
  400ba0:	ff 25 ea 24 20 00    	jmpq   *0x2024ea(%rip)        # 603090 <_GLOBAL_OFFSET_TABLE_+0x90>
  400ba6:	68 0f 00 00 00       	pushq  $0xf
  400bab:	e9 f0 fe ff ff       	jmpq   400aa0 <_init+0x20>

0000000000400bb0 <__isoc99_sscanf@plt>:
  400bb0:	ff 25 e2 24 20 00    	jmpq   *0x2024e2(%rip)        # 603098 <_GLOBAL_OFFSET_TABLE_+0x98>
  400bb6:	68 10 00 00 00       	pushq  $0x10
  400bbb:	e9 e0 fe ff ff       	jmpq   400aa0 <_init+0x20>

0000000000400bc0 <__printf_chk@plt>:
  400bc0:	ff 25 da 24 20 00    	jmpq   *0x2024da(%rip)        # 6030a0 <_GLOBAL_OFFSET_TABLE_+0xa0>
  400bc6:	68 11 00 00 00       	pushq  $0x11
  400bcb:	e9 d0 fe ff ff       	jmpq   400aa0 <_init+0x20>

0000000000400bd0 <fopen@plt>:
  400bd0:	ff 25 d2 24 20 00    	jmpq   *0x2024d2(%rip)        # 6030a8 <_GLOBAL_OFFSET_TABLE_+0xa8>
  400bd6:	68 12 00 00 00       	pushq  $0x12
  400bdb:	e9 c0 fe ff ff       	jmpq   400aa0 <_init+0x20>

0000000000400be0 <exit@plt>:
  400be0:	ff 25 ca 24 20 00    	jmpq   *0x2024ca(%rip)        # 6030b0 <_GLOBAL_OFFSET_TABLE_+0xb0>
  400be6:	68 13 00 00 00       	pushq  $0x13
  400beb:	e9 b0 fe ff ff       	jmpq   400aa0 <_init+0x20>

0000000000400bf0 <connect@plt>:
  400bf0:	ff 25 c2 24 20 00    	jmpq   *0x2024c2(%rip)        # 6030b8 <_GLOBAL_OFFSET_TABLE_+0xb8>
  400bf6:	68 14 00 00 00       	pushq  $0x14
  400bfb:	e9 a0 fe ff ff       	jmpq   400aa0 <_init+0x20>

0000000000400c00 <__fprintf_chk@plt>:
  400c00:	ff 25 ba 24 20 00    	jmpq   *0x2024ba(%rip)        # 6030c0 <_GLOBAL_OFFSET_TABLE_+0xc0>
  400c06:	68 15 00 00 00       	pushq  $0x15
  400c0b:	e9 90 fe ff ff       	jmpq   400aa0 <_init+0x20>

0000000000400c10 <sleep@plt>:
  400c10:	ff 25 b2 24 20 00    	jmpq   *0x2024b2(%rip)        # 6030c8 <_GLOBAL_OFFSET_TABLE_+0xc8>
  400c16:	68 16 00 00 00       	pushq  $0x16
  400c1b:	e9 80 fe ff ff       	jmpq   400aa0 <_init+0x20>

0000000000400c20 <__ctype_b_loc@plt>:
  400c20:	ff 25 aa 24 20 00    	jmpq   *0x2024aa(%rip)        # 6030d0 <_GLOBAL_OFFSET_TABLE_+0xd0>
  400c26:	68 17 00 00 00       	pushq  $0x17
  400c2b:	e9 70 fe ff ff       	jmpq   400aa0 <_init+0x20>

0000000000400c30 <__sprintf_chk@plt>:
  400c30:	ff 25 a2 24 20 00    	jmpq   *0x2024a2(%rip)        # 6030d8 <_GLOBAL_OFFSET_TABLE_+0xd8>
  400c36:	68 18 00 00 00       	pushq  $0x18
  400c3b:	e9 60 fe ff ff       	jmpq   400aa0 <_init+0x20>

0000000000400c40 <socket@plt>:
  400c40:	ff 25 9a 24 20 00    	jmpq   *0x20249a(%rip)        # 6030e0 <_GLOBAL_OFFSET_TABLE_+0xe0>
  400c46:	68 19 00 00 00       	pushq  $0x19
  400c4b:	e9 50 fe ff ff       	jmpq   400aa0 <_init+0x20>

Disassembly of section .plt.got:

0000000000400c50 <.plt.got>:
  400c50:	ff 25 a2 23 20 00    	jmpq   *0x2023a2(%rip)        # 602ff8 <_DYNAMIC+0x1d0>
  400c56:	66 90                	xchg   %ax,%ax

Disassembly of section .text:

0000000000400c60 <_start>:
  400c60:	31 ed                	xor    %ebp,%ebp
  400c62:	49 89 d1             	mov    %rdx,%r9
  400c65:	5e                   	pop    %rsi
  400c66:	48 89 e2             	mov    %rsp,%rdx
  400c69:	48 83 e4 f0          	and    $0xfffffffffffffff0,%rsp
  400c6d:	50                   	push   %rax
  400c6e:	54                   	push   %rsp
  400c6f:	49 c7 c0 20 22 40 00 	mov    $0x402220,%r8
  400c76:	48 c7 c1 b0 21 40 00 	mov    $0x4021b0,%rcx
  400c7d:	48 c7 c7 56 0d 40 00 	mov    $0x400d56,%rdi
  400c84:	e8 b7 fe ff ff       	callq  400b40 <__libc_start_main@plt>
  400c89:	f4                   	hlt    
  400c8a:	66 0f 1f 44 00 00    	nopw   0x0(%rax,%rax,1)

0000000000400c90 <deregister_tm_clones>:
  400c90:	b8 67 37 60 00       	mov    $0x603767,%eax
  400c95:	55                   	push   %rbp
  400c96:	48 2d 60 37 60 00    	sub    $0x603760,%rax
  400c9c:	48 83 f8 0e          	cmp    $0xe,%rax
  400ca0:	48 89 e5             	mov    %rsp,%rbp
  400ca3:	76 1b                	jbe    400cc0 <deregister_tm_clones+0x30>
  400ca5:	b8 00 00 00 00       	mov    $0x0,%eax
  400caa:	48 85 c0             	test   %rax,%rax
  400cad:	74 11                	je     400cc0 <deregister_tm_clones+0x30>
  400caf:	5d                   	pop    %rbp
  400cb0:	bf 60 37 60 00       	mov    $0x603760,%edi
  400cb5:	ff e0                	jmpq   *%rax
  400cb7:	66 0f 1f 84 00 00 00 	nopw   0x0(%rax,%rax,1)
  400cbe:	00 00 
  400cc0:	5d                   	pop    %rbp
  400cc1:	c3                   	retq   
  400cc2:	0f 1f 40 00          	nopl   0x0(%rax)
  400cc6:	66 2e 0f 1f 84 00 00 	nopw   %cs:0x0(%rax,%rax,1)
  400ccd:	00 00 00 

0000000000400cd0 <register_tm_clones>:
  400cd0:	be 60 37 60 00       	mov    $0x603760,%esi
  400cd5:	55                   	push   %rbp
  400cd6:	48 81 ee 60 37 60 00 	sub    $0x603760,%rsi
  400cdd:	48 c1 fe 03          	sar    $0x3,%rsi
  400ce1:	48 89 e5             	mov    %rsp,%rbp
  400ce4:	48 89 f0             	mov    %rsi,%rax
  400ce7:	48 c1 e8 3f          	shr    $0x3f,%rax
  400ceb:	48 01 c6             	add    %rax,%rsi
  400cee:	48 d1 fe             	sar    %rsi
  400cf1:	74 15                	je     400d08 <register_tm_clones+0x38>
  400cf3:	b8 00 00 00 00       	mov    $0x0,%eax
  400cf8:	48 85 c0             	test   %rax,%rax
  400cfb:	74 0b                	je     400d08 <register_tm_clones+0x38>
  400cfd:	5d                   	pop    %rbp
  400cfe:	bf 60 37 60 00       	mov    $0x603760,%edi
  400d03:	ff e0                	jmpq   *%rax
  400d05:	0f 1f 00             	nopl   (%rax)
  400d08:	5d                   	pop    %rbp
  400d09:	c3                   	retq   
  400d0a:	66 0f 1f 44 00 00    	nopw   0x0(%rax,%rax,1)

0000000000400d10 <__do_global_dtors_aux>:
  400d10:	80 3d 71 2a 20 00 00 	cmpb   $0x0,0x202a71(%rip)        # 603788 <completed.7594>
  400d17:	75 11                	jne    400d2a <__do_global_dtors_aux+0x1a>
  400d19:	55                   	push   %rbp
  400d1a:	48 89 e5             	mov    %rsp,%rbp
  400d1d:	e8 6e ff ff ff       	callq  400c90 <deregister_tm_clones>
  400d22:	5d                   	pop    %rbp
  400d23:	c6 05 5e 2a 20 00 01 	movb   $0x1,0x202a5e(%rip)        # 603788 <completed.7594>
  400d2a:	f3 c3                	repz retq 
  400d2c:	0f 1f 40 00          	nopl   0x0(%rax)

0000000000400d30 <frame_dummy>:
  400d30:	bf 20 2e 60 00       	mov    $0x602e20,%edi
  400d35:	48 83 3f 00          	cmpq   $0x0,(%rdi)
  400d39:	75 05                	jne    400d40 <frame_dummy+0x10>
  400d3b:	eb 93                	jmp    400cd0 <register_tm_clones>
  400d3d:	0f 1f 00             	nopl   (%rax)
  400d40:	b8 00 00 00 00       	mov    $0x0,%eax
  400d45:	48 85 c0             	test   %rax,%rax
  400d48:	74 f1                	je     400d3b <frame_dummy+0xb>
  400d4a:	55                   	push   %rbp
  400d4b:	48 89 e5             	mov    %rsp,%rbp
  400d4e:	ff d0                	callq  *%rax
  400d50:	5d                   	pop    %rbp
  400d51:	e9 7a ff ff ff       	jmpq   400cd0 <register_tm_clones>

0000000000400d56 <main>:
  400d56:	53                   	push   %rbx
  400d57:	83 ff 01             	cmp    $0x1,%edi
  400d5a:	75 10                	jne    400d6c <main+0x16>
  400d5c:	48 8b 05 0d 2a 20 00 	mov    0x202a0d(%rip),%rax        # 603770 <stdin@@GLIBC_2.2.5>
  400d63:	48 89 05 2e 2a 20 00 	mov    %rax,0x202a2e(%rip)        # 603798 <infile>
  400d6a:	eb 63                	jmp    400dcf <main+0x79>
  400d6c:	48 89 f3             	mov    %rsi,%rbx
  400d6f:	83 ff 02             	cmp    $0x2,%edi
  400d72:	75 3a                	jne    400dae <main+0x58>
  400d74:	48 8b 7e 08          	mov    0x8(%rsi),%rdi
  400d78:	be 33 27 40 00       	mov    $0x402733,%esi
  400d7d:	e8 4e fe ff ff       	callq  400bd0 <fopen@plt>
  400d82:	48 89 05 0f 2a 20 00 	mov    %rax,0x202a0f(%rip)        # 603798 <infile>
  400d89:	48 85 c0             	test   %rax,%rax
  400d8c:	75 41                	jne    400dcf <main+0x79>
  400d8e:	48 8b 4b 08          	mov    0x8(%rbx),%rcx
  400d92:	48 8b 13             	mov    (%rbx),%rdx
  400d95:	be 44 22 40 00       	mov    $0x402244,%esi
  400d9a:	bf 01 00 00 00       	mov    $0x1,%edi
  400d9f:	e8 1c fe ff ff       	callq  400bc0 <__printf_chk@plt>
  400da4:	bf 08 00 00 00       	mov    $0x8,%edi
  400da9:	e8 32 fe ff ff       	callq  400be0 <exit@plt>
  400dae:	48 8b 16             	mov    (%rsi),%rdx
  400db1:	be 61 22 40 00       	mov    $0x402261,%esi
  400db6:	bf 01 00 00 00       	mov    $0x1,%edi
  400dbb:	b8 00 00 00 00       	mov    $0x0,%eax
  400dc0:	e8 fb fd ff ff       	callq  400bc0 <__printf_chk@plt>
  400dc5:	bf 08 00 00 00       	mov    $0x8,%edi
  400dca:	e8 11 fe ff ff       	callq  400be0 <exit@plt>
  400dcf:	e8 96 05 00 00       	callq  40136a <initialize_bomb>
  400dd4:	bf c8 22 40 00       	mov    $0x4022c8,%edi
  400dd9:	e8 02 fd ff ff       	callq  400ae0 <puts@plt>
  400dde:	bf 08 23 40 00       	mov    $0x402308,%edi
  400de3:	e8 f8 fc ff ff       	callq  400ae0 <puts@plt>
  400de8:	e8 76 06 00 00       	callq  401463 <read_line>
  400ded:	48 89 c7             	mov    %rax,%rdi
  400df0:	e8 98 00 00 00       	callq  400e8d <phase_1>
  400df5:	e8 8f 07 00 00       	callq  401589 <phase_defused>
  400dfa:	bf 38 23 40 00       	mov    $0x402338,%edi
  400dff:	e8 dc fc ff ff       	callq  400ae0 <puts@plt>
  400e04:	e8 5a 06 00 00       	callq  401463 <read_line>
  400e09:	48 89 c7             	mov    %rax,%rdi
  400e0c:	e8 98 00 00 00       	callq  400ea9 <phase_2>
  400e11:	e8 73 07 00 00       	callq  401589 <phase_defused>
  400e16:	bf 7b 22 40 00       	mov    $0x40227b,%edi
  400e1b:	e8 c0 fc ff ff       	callq  400ae0 <puts@plt>
  400e20:	e8 3e 06 00 00       	callq  401463 <read_line>
  400e25:	48 89 c7             	mov    %rax,%rdi
  400e28:	e8 e8 00 00 00       	callq  400f15 <phase_3>
  400e2d:	e8 57 07 00 00       	callq  401589 <phase_defused>
  400e32:	bf 99 22 40 00       	mov    $0x402299,%edi
  400e37:	e8 a4 fc ff ff       	callq  400ae0 <puts@plt>
  400e3c:	e8 22 06 00 00       	callq  401463 <read_line>
  400e41:	48 89 c7             	mov    %rax,%rdi
  400e44:	e8 b1 01 00 00       	callq  400ffa <phase_4>
  400e49:	e8 3b 07 00 00       	callq  401589 <phase_defused>
  400e4e:	bf 68 23 40 00       	mov    $0x402368,%edi
  400e53:	e8 88 fc ff ff       	callq  400ae0 <puts@plt>
  400e58:	e8 06 06 00 00       	callq  401463 <read_line>
  400e5d:	48 89 c7             	mov    %rax,%rdi
  400e60:	e8 07 02 00 00       	callq  40106c <phase_5>
  400e65:	e8 1f 07 00 00       	callq  401589 <phase_defused>
  400e6a:	bf a8 22 40 00       	mov    $0x4022a8,%edi
  400e6f:	e8 6c fc ff ff       	callq  400ae0 <puts@plt>
  400e74:	e8 ea 05 00 00       	callq  401463 <read_line>
  400e79:	48 89 c7             	mov    %rax,%rdi
  400e7c:	e8 2c 02 00 00       	callq  4010ad <phase_6>
  400e81:	e8 03 07 00 00       	callq  401589 <phase_defused>
  400e86:	b8 00 00 00 00       	mov    $0x0,%eax
  400e8b:	5b                   	pop    %rbx
  400e8c:	c3                   	retq   

0000000000400e8d <phase_1>:
  400e8d:	48 83 ec 08          	sub    $0x8,%rsp
  400e91:	be 90 23 40 00       	mov    $0x402390,%esi
  400e96:	e8 68 04 00 00       	callq  401303 <strings_not_equal>
  400e9b:	85 c0                	test   %eax,%eax
  400e9d:	74 05                	je     400ea4 <phase_1+0x17>
  400e9f:	e8 5e 05 00 00       	callq  401402 <explode_bomb>
  400ea4:	48 83 c4 08          	add    $0x8,%rsp
  400ea8:	c3                   	retq   

0000000000400ea9 <phase_2>:
  400ea9:	55                   	push   %rbp
  400eaa:	53                   	push   %rbx
  400eab:	48 83 ec 28          	sub    $0x28,%rsp
  400eaf:	64 48 8b 04 25 28 00 	mov    %fs:0x28,%rax
  400eb6:	00 00 
  400eb8:	48 89 44 24 18       	mov    %rax,0x18(%rsp)
  400ebd:	31 c0                	xor    %eax,%eax
  400ebf:	48 89 e6             	mov    %rsp,%rsi
  400ec2:	e8 5d 05 00 00       	callq  401424 <read_six_numbers>
  400ec7:	83 3c 24 00          	cmpl   $0x0,(%rsp)
  400ecb:	75 07                	jne    400ed4 <phase_2+0x2b>
  400ecd:	83 7c 24 04 01       	cmpl   $0x1,0x4(%rsp)
  400ed2:	74 05                	je     400ed9 <phase_2+0x30>
  400ed4:	e8 29 05 00 00       	callq  401402 <explode_bomb>
  400ed9:	48 89 e3             	mov    %rsp,%rbx
  400edc:	48 8d 6c 24 10       	lea    0x10(%rsp),%rbp
  400ee1:	8b 43 04             	mov    0x4(%rbx),%eax
  400ee4:	03 03                	add    (%rbx),%eax
  400ee6:	39 43 08             	cmp    %eax,0x8(%rbx)
  400ee9:	74 05                	je     400ef0 <phase_2+0x47>
  400eeb:	e8 12 05 00 00       	callq  401402 <explode_bomb>
  400ef0:	48 83 c3 04          	add    $0x4,%rbx
  400ef4:	48 39 eb             	cmp    %rbp,%rbx
  400ef7:	75 e8                	jne    400ee1 <phase_2+0x38>
  400ef9:	48 8b 44 24 18       	mov    0x18(%rsp),%rax
  400efe:	64 48 33 04 25 28 00 	xor    %fs:0x28,%rax
  400f05:	00 00 
  400f07:	74 05                	je     400f0e <phase_2+0x65>
  400f09:	e8 f2 fb ff ff       	callq  400b00 <__stack_chk_fail@plt>
  400f0e:	48 83 c4 28          	add    $0x28,%rsp
  400f12:	5b                   	pop    %rbx
  400f13:	5d                   	pop    %rbp
  400f14:	c3                   	retq   

0000000000400f15 <phase_3>:
  400f15:	48 83 ec 18          	sub    $0x18,%rsp
  400f19:	64 48 8b 04 25 28 00 	mov    %fs:0x28,%rax
  400f20:	00 00 
  400f22:	48 89 44 24 08       	mov    %rax,0x8(%rsp)
  400f27:	31 c0                	xor    %eax,%eax
  400f29:	48 8d 4c 24 04       	lea    0x4(%rsp),%rcx
  400f2e:	48 89 e2             	mov    %rsp,%rdx
  400f31:	be 8f 25 40 00       	mov    $0x40258f,%esi
  400f36:	e8 75 fc ff ff       	callq  400bb0 <__isoc99_sscanf@plt>
  400f3b:	83 f8 01             	cmp    $0x1,%eax
  400f3e:	7f 05                	jg     400f45 <phase_3+0x30>
  400f40:	e8 bd 04 00 00       	callq  401402 <explode_bomb>
  400f45:	83 3c 24 07          	cmpl   $0x7,(%rsp)
  400f49:	77 3b                	ja     400f86 <phase_3+0x71>
  400f4b:	8b 04 24             	mov    (%rsp),%eax
  400f4e:	ff 24 c5 00 24 40 00 	jmpq   *0x402400(,%rax,8)
  400f55:	b8 ee 01 00 00       	mov    $0x1ee,%eax
  400f5a:	eb 3b                	jmp    400f97 <phase_3+0x82>
  400f5c:	b8 ae 03 00 00       	mov    $0x3ae,%eax
  400f61:	eb 34                	jmp    400f97 <phase_3+0x82>
  400f63:	b8 aa 01 00 00       	mov    $0x1aa,%eax
  400f68:	eb 2d                	jmp    400f97 <phase_3+0x82>
  400f6a:	b8 39 02 00 00       	mov    $0x239,%eax
  400f6f:	eb 26                	jmp    400f97 <phase_3+0x82>
  400f71:	b8 d8 03 00 00       	mov    $0x3d8,%eax
  400f76:	eb 1f                	jmp    400f97 <phase_3+0x82>
  400f78:	b8 d5 01 00 00       	mov    $0x1d5,%eax
  400f7d:	eb 18                	jmp    400f97 <phase_3+0x82>
  400f7f:	b8 c0 01 00 00       	mov    $0x1c0,%eax
  400f84:	eb 11                	jmp    400f97 <phase_3+0x82>
  400f86:	e8 77 04 00 00       	callq  401402 <explode_bomb>
  400f8b:	b8 00 00 00 00       	mov    $0x0,%eax
  400f90:	eb 05                	jmp    400f97 <phase_3+0x82>
  400f92:	b8 25 03 00 00       	mov    $0x325,%eax
  400f97:	3b 44 24 04          	cmp    0x4(%rsp),%eax
  400f9b:	74 05                	je     400fa2 <phase_3+0x8d>
  400f9d:	e8 60 04 00 00       	callq  401402 <explode_bomb>
  400fa2:	48 8b 44 24 08       	mov    0x8(%rsp),%rax
  400fa7:	64 48 33 04 25 28 00 	xor    %fs:0x28,%rax
  400fae:	00 00 
  400fb0:	74 05                	je     400fb7 <phase_3+0xa2>
  400fb2:	e8 49 fb ff ff       	callq  400b00 <__stack_chk_fail@plt>
  400fb7:	48 83 c4 18          	add    $0x18,%rsp
  400fbb:	c3                   	retq   

0000000000400fbc <func4>:
  400fbc:	48 83 ec 08          	sub    $0x8,%rsp
  400fc0:	89 d0                	mov    %edx,%eax
  400fc2:	29 f0                	sub    %esi,%eax
  400fc4:	89 c1                	mov    %eax,%ecx
  400fc6:	c1 e9 1f             	shr    $0x1f,%ecx
  400fc9:	01 c8                	add    %ecx,%eax
  400fcb:	d1 f8                	sar    %eax
  400fcd:	8d 0c 30             	lea    (%rax,%rsi,1),%ecx
  400fd0:	39 f9                	cmp    %edi,%ecx
  400fd2:	7e 0c                	jle    400fe0 <func4+0x24>
  400fd4:	8d 51 ff             	lea    -0x1(%rcx),%edx
  400fd7:	e8 e0 ff ff ff       	callq  400fbc <func4>
  400fdc:	01 c0                	add    %eax,%eax
  400fde:	eb 15                	jmp    400ff5 <func4+0x39>
  400fe0:	b8 00 00 00 00       	mov    $0x0,%eax
  400fe5:	39 f9                	cmp    %edi,%ecx
  400fe7:	7d 0c                	jge    400ff5 <func4+0x39>
  400fe9:	8d 71 01             	lea    0x1(%rcx),%esi
  400fec:	e8 cb ff ff ff       	callq  400fbc <func4>
  400ff1:	8d 44 00 01          	lea    0x1(%rax,%rax,1),%eax
  400ff5:	48 83 c4 08          	add    $0x8,%rsp
  400ff9:	c3                   	retq   

0000000000400ffa <phase_4>:
  400ffa:	48 83 ec 18          	sub    $0x18,%rsp
  400ffe:	64 48 8b 04 25 28 00 	mov    %fs:0x28,%rax
  401005:	00 00 
  401007:	48 89 44 24 08       	mov    %rax,0x8(%rsp)
  40100c:	31 c0                	xor    %eax,%eax
  40100e:	48 8d 4c 24 04       	lea    0x4(%rsp),%rcx
  401013:	48 89 e2             	mov    %rsp,%rdx
  401016:	be 8f 25 40 00       	mov    $0x40258f,%esi
  40101b:	e8 90 fb ff ff       	callq  400bb0 <__isoc99_sscanf@plt>
  401020:	83 f8 02             	cmp    $0x2,%eax
  401023:	75 06                	jne    40102b <phase_4+0x31>
  401025:	83 3c 24 0e          	cmpl   $0xe,(%rsp)
  401029:	76 05                	jbe    401030 <phase_4+0x36>
  40102b:	e8 d2 03 00 00       	callq  401402 <explode_bomb>
  401030:	ba 0e 00 00 00       	mov    $0xe,%edx
  401035:	be 00 00 00 00       	mov    $0x0,%esi
  40103a:	8b 3c 24             	mov    (%rsp),%edi
  40103d:	e8 7a ff ff ff       	callq  400fbc <func4>
  401042:	85 c0                	test   %eax,%eax
  401044:	75 07                	jne    40104d <phase_4+0x53>
  401046:	83 7c 24 04 00       	cmpl   $0x0,0x4(%rsp)
  40104b:	74 05                	je     401052 <phase_4+0x58>
  40104d:	e8 b0 03 00 00       	callq  401402 <explode_bomb>
  401052:	48 8b 44 24 08       	mov    0x8(%rsp),%rax
  401057:	64 48 33 04 25 28 00 	xor    %fs:0x28,%rax
  40105e:	00 00 
  401060:	74 05                	je     401067 <phase_4+0x6d>
  401062:	e8 99 fa ff ff       	callq  400b00 <__stack_chk_fail@plt>
  401067:	48 83 c4 18          	add    $0x18,%rsp
  40106b:	c3                   	retq   

000000000040106c <phase_5>:
  40106c:	53                   	push   %rbx
  40106d:	48 89 fb             	mov    %rdi,%rbx
  401070:	e8 70 02 00 00       	callq  4012e5 <string_length>
  401075:	83 f8 06             	cmp    $0x6,%eax
  401078:	74 05                	je     40107f <phase_5+0x13>
  40107a:	e8 83 03 00 00       	callq  401402 <explode_bomb>
  40107f:	48 89 d8             	mov    %rbx,%rax
  401082:	48 8d 7b 06          	lea    0x6(%rbx),%rdi
  401086:	b9 00 00 00 00       	mov    $0x0,%ecx
  40108b:	0f b6 10             	movzbl (%rax),%edx
  40108e:	83 e2 0f             	and    $0xf,%edx
  401091:	03 0c 95 40 24 40 00 	add    0x402440(,%rdx,4),%ecx
  401098:	48 83 c0 01          	add    $0x1,%rax
  40109c:	48 39 f8             	cmp    %rdi,%rax
  40109f:	75 ea                	jne    40108b <phase_5+0x1f>
  4010a1:	83 f9 29             	cmp    $0x29,%ecx
  4010a4:	74 05                	je     4010ab <phase_5+0x3f>
  4010a6:	e8 57 03 00 00       	callq  401402 <explode_bomb>
  4010ab:	5b                   	pop    %rbx
  4010ac:	c3                   	retq   

00000000004010ad <phase_6>:
  4010ad:	41 56                	push   %r14
  4010af:	41 55                	push   %r13
  4010b1:	41 54                	push   %r12
  4010b3:	55                   	push   %rbp
  4010b4:	53                   	push   %rbx
  4010b5:	48 83 ec 60          	sub    $0x60,%rsp
  4010b9:	64 48 8b 04 25 28 00 	mov    %fs:0x28,%rax
  4010c0:	00 00 
  4010c2:	48 89 44 24 58       	mov    %rax,0x58(%rsp)
  4010c7:	31 c0                	xor    %eax,%eax
  4010c9:	48 89 e6             	mov    %rsp,%rsi
  4010cc:	e8 53 03 00 00       	callq  401424 <read_six_numbers>
  4010d1:	49 89 e4             	mov    %rsp,%r12
  4010d4:	49 89 e5             	mov    %rsp,%r13
  4010d7:	41 be 00 00 00 00    	mov    $0x0,%r14d
  4010dd:	4c 89 ed             	mov    %r13,%rbp
  4010e0:	41 8b 45 00          	mov    0x0(%r13),%eax
  4010e4:	83 e8 01             	sub    $0x1,%eax
  4010e7:	83 f8 05             	cmp    $0x5,%eax
  4010ea:	76 05                	jbe    4010f1 <phase_6+0x44>
  4010ec:	e8 11 03 00 00       	callq  401402 <explode_bomb>
  4010f1:	41 83 c6 01          	add    $0x1,%r14d
  4010f5:	41 83 fe 06          	cmp    $0x6,%r14d
  4010f9:	74 21                	je     40111c <phase_6+0x6f>
  4010fb:	44 89 f3             	mov    %r14d,%ebx
  4010fe:	48 63 c3             	movslq %ebx,%rax
  401101:	8b 04 84             	mov    (%rsp,%rax,4),%eax
  401104:	39 45 00             	cmp    %eax,0x0(%rbp)
  401107:	75 05                	jne    40110e <phase_6+0x61>
  401109:	e8 f4 02 00 00       	callq  401402 <explode_bomb>
  40110e:	83 c3 01             	add    $0x1,%ebx
  401111:	83 fb 05             	cmp    $0x5,%ebx
  401114:	7e e8                	jle    4010fe <phase_6+0x51>
  401116:	49 83 c5 04          	add    $0x4,%r13
  40111a:	eb c1                	jmp    4010dd <phase_6+0x30>
  40111c:	48 8d 4c 24 18       	lea    0x18(%rsp),%rcx
  401121:	ba 07 00 00 00       	mov    $0x7,%edx
  401126:	89 d0                	mov    %edx,%eax
  401128:	41 2b 04 24          	sub    (%r12),%eax
  40112c:	41 89 04 24          	mov    %eax,(%r12)
  401130:	49 83 c4 04          	add    $0x4,%r12
  401134:	4c 39 e1             	cmp    %r12,%rcx
  401137:	75 ed                	jne    401126 <phase_6+0x79>
  401139:	be 00 00 00 00       	mov    $0x0,%esi
  40113e:	eb 1a                	jmp    40115a <phase_6+0xad>
  401140:	48 8b 52 08          	mov    0x8(%rdx),%rdx
  401144:	83 c0 01             	add    $0x1,%eax
  401147:	39 c8                	cmp    %ecx,%eax
  401149:	75 f5                	jne    401140 <phase_6+0x93>
  40114b:	48 89 54 74 20       	mov    %rdx,0x20(%rsp,%rsi,2)
  401150:	48 83 c6 04          	add    $0x4,%rsi
  401154:	48 83 fe 18          	cmp    $0x18,%rsi
  401158:	74 14                	je     40116e <phase_6+0xc1>
  40115a:	8b 0c 34             	mov    (%rsp,%rsi,1),%ecx
  40115d:	b8 01 00 00 00       	mov    $0x1,%eax
  401162:	ba f0 32 60 00       	mov    $0x6032f0,%edx
  401167:	83 f9 01             	cmp    $0x1,%ecx
  40116a:	7f d4                	jg     401140 <phase_6+0x93>
  40116c:	eb dd                	jmp    40114b <phase_6+0x9e>
  40116e:	48 8b 5c 24 20       	mov    0x20(%rsp),%rbx
  401173:	48 8d 44 24 20       	lea    0x20(%rsp),%rax
  401178:	48 8d 74 24 48       	lea    0x48(%rsp),%rsi
  40117d:	48 89 d9             	mov    %rbx,%rcx
  401180:	48 8b 50 08          	mov    0x8(%rax),%rdx
  401184:	48 89 51 08          	mov    %rdx,0x8(%rcx)
  401188:	48 83 c0 08          	add    $0x8,%rax
  40118c:	48 89 d1             	mov    %rdx,%rcx
  40118f:	48 39 c6             	cmp    %rax,%rsi
  401192:	75 ec                	jne    401180 <phase_6+0xd3>
  401194:	48 c7 42 08 00 00 00 	movq   $0x0,0x8(%rdx)
  40119b:	00 
  40119c:	bd 05 00 00 00       	mov    $0x5,%ebp
  4011a1:	48 8b 43 08          	mov    0x8(%rbx),%rax
  4011a5:	8b 00                	mov    (%rax),%eax
  4011a7:	39 03                	cmp    %eax,(%rbx)
  4011a9:	7d 05                	jge    4011b0 <phase_6+0x103>
  4011ab:	e8 52 02 00 00       	callq  401402 <explode_bomb>
  4011b0:	48 8b 5b 08          	mov    0x8(%rbx),%rbx
  4011b4:	83 ed 01             	sub    $0x1,%ebp
  4011b7:	75 e8                	jne    4011a1 <phase_6+0xf4>
  4011b9:	48 8b 44 24 58       	mov    0x58(%rsp),%rax
  4011be:	64 48 33 04 25 28 00 	xor    %fs:0x28,%rax
  4011c5:	00 00 
  4011c7:	74 05                	je     4011ce <phase_6+0x121>
  4011c9:	e8 32 f9 ff ff       	callq  400b00 <__stack_chk_fail@plt>
  4011ce:	48 83 c4 60          	add    $0x60,%rsp
  4011d2:	5b                   	pop    %rbx
  4011d3:	5d                   	pop    %rbp
  4011d4:	41 5c                	pop    %r12
  4011d6:	41 5d                	pop    %r13
  4011d8:	41 5e                	pop    %r14
  4011da:	c3                   	retq   

00000000004011db <fun7>:
  4011db:	48 83 ec 08          	sub    $0x8,%rsp
  4011df:	48 85 ff             	test   %rdi,%rdi
  4011e2:	74 2b                	je     40120f <fun7+0x34>
  4011e4:	8b 17                	mov    (%rdi),%edx
  4011e6:	39 f2                	cmp    %esi,%edx
  4011e8:	7e 0d                	jle    4011f7 <fun7+0x1c>
  4011ea:	48 8b 7f 08          	mov    0x8(%rdi),%rdi
  4011ee:	e8 e8 ff ff ff       	callq  4011db <fun7>
  4011f3:	01 c0                	add    %eax,%eax
  4011f5:	eb 1d                	jmp    401214 <fun7+0x39>
  4011f7:	b8 00 00 00 00       	mov    $0x0,%eax
  4011fc:	39 f2                	cmp    %esi,%edx
  4011fe:	74 14                	je     401214 <fun7+0x39>
  401200:	48 8b 7f 10          	mov    0x10(%rdi),%rdi
  401204:	e8 d2 ff ff ff       	callq  4011db <fun7>
  401209:	8d 44 00 01          	lea    0x1(%rax,%rax,1),%eax
  40120d:	eb 05                	jmp    401214 <fun7+0x39>
  40120f:	b8 ff ff ff ff       	mov    $0xffffffff,%eax
  401214:	48 83 c4 08          	add    $0x8,%rsp
  401218:	c3                   	retq   

0000000000401219 <secret_phase>:
  401219:	53                   	push   %rbx
  40121a:	e8 44 02 00 00       	callq  401463 <read_line>
  40121f:	ba 0a 00 00 00       	mov    $0xa,%edx
  401224:	be 00 00 00 00       	mov    $0x0,%esi
  401229:	48 89 c7             	mov    %rax,%rdi
  40122c:	e8 5f f9 ff ff       	callq  400b90 <strtol@plt>
  401231:	48 89 c3             	mov    %rax,%rbx
  401234:	8d 40 ff             	lea    -0x1(%rax),%eax
  401237:	3d e8 03 00 00       	cmp    $0x3e8,%eax
  40123c:	76 05                	jbe    401243 <secret_phase+0x2a>
  40123e:	e8 bf 01 00 00       	callq  401402 <explode_bomb>
  401243:	89 de                	mov    %ebx,%esi
  401245:	bf 10 31 60 00       	mov    $0x603110,%edi
  40124a:	e8 8c ff ff ff       	callq  4011db <fun7>
  40124f:	83 f8 05             	cmp    $0x5,%eax
  401252:	74 05                	je     401259 <secret_phase+0x40>
  401254:	e8 a9 01 00 00       	callq  401402 <explode_bomb>
  401259:	bf c8 23 40 00       	mov    $0x4023c8,%edi
  40125e:	e8 7d f8 ff ff       	callq  400ae0 <puts@plt>
  401263:	e8 21 03 00 00       	callq  401589 <phase_defused>
  401268:	5b                   	pop    %rbx
  401269:	c3                   	retq   

000000000040126a <sig_handler>:
  40126a:	48 83 ec 08          	sub    $0x8,%rsp
  40126e:	bf 80 24 40 00       	mov    $0x402480,%edi
  401273:	e8 68 f8 ff ff       	callq  400ae0 <puts@plt>
  401278:	bf 03 00 00 00       	mov    $0x3,%edi
  40127d:	e8 8e f9 ff ff       	callq  400c10 <sleep@plt>
  401282:	be 42 25 40 00       	mov    $0x402542,%esi
  401287:	bf 01 00 00 00       	mov    $0x1,%edi
  40128c:	b8 00 00 00 00       	mov    $0x0,%eax
  401291:	e8 2a f9 ff ff       	callq  400bc0 <__printf_chk@plt>
  401296:	48 8b 3d c3 24 20 00 	mov    0x2024c3(%rip),%rdi        # 603760 <__TMC_END__>
  40129d:	e8 fe f8 ff ff       	callq  400ba0 <fflush@plt>
  4012a2:	bf 01 00 00 00       	mov    $0x1,%edi
  4012a7:	e8 64 f9 ff ff       	callq  400c10 <sleep@plt>
  4012ac:	bf 4a 25 40 00       	mov    $0x40254a,%edi
  4012b1:	e8 2a f8 ff ff       	callq  400ae0 <puts@plt>
  4012b6:	bf 10 00 00 00       	mov    $0x10,%edi
  4012bb:	e8 20 f9 ff ff       	callq  400be0 <exit@plt>

00000000004012c0 <invalid_phase>:
  4012c0:	48 83 ec 08          	sub    $0x8,%rsp
  4012c4:	48 89 fa             	mov    %rdi,%rdx
  4012c7:	be 52 25 40 00       	mov    $0x402552,%esi
  4012cc:	bf 01 00 00 00       	mov    $0x1,%edi
  4012d1:	b8 00 00 00 00       	mov    $0x0,%eax
  4012d6:	e8 e5 f8 ff ff       	callq  400bc0 <__printf_chk@plt>
  4012db:	bf 08 00 00 00       	mov    $0x8,%edi
  4012e0:	e8 fb f8 ff ff       	callq  400be0 <exit@plt>

00000000004012e5 <string_length>:
  4012e5:	80 3f 00             	cmpb   $0x0,(%rdi)
  4012e8:	74 13                	je     4012fd <string_length+0x18>
  4012ea:	b8 00 00 00 00       	mov    $0x0,%eax
  4012ef:	48 83 c7 01          	add    $0x1,%rdi
  4012f3:	83 c0 01             	add    $0x1,%eax
  4012f6:	80 3f 00             	cmpb   $0x0,(%rdi)
  4012f9:	75 f4                	jne    4012ef <string_length+0xa>
  4012fb:	f3 c3                	repz retq 
  4012fd:	b8 00 00 00 00       	mov    $0x0,%eax
  401302:	c3                   	retq   

0000000000401303 <strings_not_equal>:
  401303:	41 54                	push   %r12
  401305:	55                   	push   %rbp
  401306:	53                   	push   %rbx
  401307:	48 89 fb             	mov    %rdi,%rbx
  40130a:	48 89 f5             	mov    %rsi,%rbp
  40130d:	e8 d3 ff ff ff       	callq  4012e5 <string_length>
  401312:	41 89 c4             	mov    %eax,%r12d
  401315:	48 89 ef             	mov    %rbp,%rdi
  401318:	e8 c8 ff ff ff       	callq  4012e5 <string_length>
  40131d:	ba 01 00 00 00       	mov    $0x1,%edx
  401322:	41 39 c4             	cmp    %eax,%r12d
  401325:	75 3c                	jne    401363 <strings_not_equal+0x60>
  401327:	0f b6 03             	movzbl (%rbx),%eax
  40132a:	84 c0                	test   %al,%al
  40132c:	74 22                	je     401350 <strings_not_equal+0x4d>
  40132e:	3a 45 00             	cmp    0x0(%rbp),%al
  401331:	74 07                	je     40133a <strings_not_equal+0x37>
  401333:	eb 22                	jmp    401357 <strings_not_equal+0x54>
  401335:	3a 45 00             	cmp    0x0(%rbp),%al
  401338:	75 24                	jne    40135e <strings_not_equal+0x5b>
  40133a:	48 83 c3 01          	add    $0x1,%rbx
  40133e:	48 83 c5 01          	add    $0x1,%rbp
  401342:	0f b6 03             	movzbl (%rbx),%eax
  401345:	84 c0                	test   %al,%al
  401347:	75 ec                	jne    401335 <strings_not_equal+0x32>
  401349:	ba 00 00 00 00       	mov    $0x0,%edx
  40134e:	eb 13                	jmp    401363 <strings_not_equal+0x60>
  401350:	ba 00 00 00 00       	mov    $0x0,%edx
  401355:	eb 0c                	jmp    401363 <strings_not_equal+0x60>
  401357:	ba 01 00 00 00       	mov    $0x1,%edx
  40135c:	eb 05                	jmp    401363 <strings_not_equal+0x60>
  40135e:	ba 01 00 00 00       	mov    $0x1,%edx
  401363:	89 d0                	mov    %edx,%eax
  401365:	5b                   	pop    %rbx
  401366:	5d                   	pop    %rbp
  401367:	41 5c                	pop    %r12
  401369:	c3                   	retq   

000000000040136a <initialize_bomb>:
  40136a:	48 83 ec 08          	sub    $0x8,%rsp
  40136e:	be 6a 12 40 00       	mov    $0x40126a,%esi
  401373:	bf 02 00 00 00       	mov    $0x2,%edi
  401378:	e8 e3 f7 ff ff       	callq  400b60 <signal@plt>
  40137d:	48 83 c4 08          	add    $0x8,%rsp
  401381:	c3                   	retq   

0000000000401382 <initialize_bomb_solve>:
  401382:	f3 c3                	repz retq 

0000000000401384 <blank_line>:
  401384:	55                   	push   %rbp
  401385:	53                   	push   %rbx
  401386:	48 83 ec 08          	sub    $0x8,%rsp
  40138a:	48 89 fd             	mov    %rdi,%rbp
  40138d:	eb 17                	jmp    4013a6 <blank_line+0x22>
  40138f:	e8 8c f8 ff ff       	callq  400c20 <__ctype_b_loc@plt>
  401394:	48 83 c5 01          	add    $0x1,%rbp
  401398:	48 0f be db          	movsbq %bl,%rbx
  40139c:	48 8b 00             	mov    (%rax),%rax
  40139f:	f6 44 58 01 20       	testb  $0x20,0x1(%rax,%rbx,2)
  4013a4:	74 0f                	je     4013b5 <blank_line+0x31>
  4013a6:	0f b6 5d 00          	movzbl 0x0(%rbp),%ebx
  4013aa:	84 db                	test   %bl,%bl
  4013ac:	75 e1                	jne    40138f <blank_line+0xb>
  4013ae:	b8 01 00 00 00       	mov    $0x1,%eax
  4013b3:	eb 05                	jmp    4013ba <blank_line+0x36>
  4013b5:	b8 00 00 00 00       	mov    $0x0,%eax
  4013ba:	48 83 c4 08          	add    $0x8,%rsp
  4013be:	5b                   	pop    %rbx
  4013bf:	5d                   	pop    %rbp
  4013c0:	c3                   	retq   

00000000004013c1 <skip>:
  4013c1:	53                   	push   %rbx
  4013c2:	48 63 05 c7 23 20 00 	movslq 0x2023c7(%rip),%rax        # 603790 <num_input_strings>
  4013c9:	48 8d 3c 80          	lea    (%rax,%rax,4),%rdi
  4013cd:	48 c1 e7 04          	shl    $0x4,%rdi
  4013d1:	48 81 c7 a0 37 60 00 	add    $0x6037a0,%rdi
  4013d8:	48 8b 15 b9 23 20 00 	mov    0x2023b9(%rip),%rdx        # 603798 <infile>
  4013df:	be 50 00 00 00       	mov    $0x50,%esi
  4013e4:	e8 67 f7 ff ff       	callq  400b50 <fgets@plt>
  4013e9:	48 89 c3             	mov    %rax,%rbx
  4013ec:	48 85 c0             	test   %rax,%rax
  4013ef:	74 0c                	je     4013fd <skip+0x3c>
  4013f1:	48 89 c7             	mov    %rax,%rdi
  4013f4:	e8 8b ff ff ff       	callq  401384 <blank_line>
  4013f9:	85 c0                	test   %eax,%eax
  4013fb:	75 c5                	jne    4013c2 <skip+0x1>
  4013fd:	48 89 d8             	mov    %rbx,%rax
  401400:	5b                   	pop    %rbx
  401401:	c3                   	retq   

0000000000401402 <explode_bomb>:
  401402:	48 83 ec 08          	sub    $0x8,%rsp
  401406:	bf 63 25 40 00       	mov    $0x402563,%edi
  40140b:	e8 d0 f6 ff ff       	callq  400ae0 <puts@plt>
  401410:	bf 6c 25 40 00       	mov    $0x40256c,%edi
  401415:	e8 c6 f6 ff ff       	callq  400ae0 <puts@plt>
  40141a:	bf 08 00 00 00       	mov    $0x8,%edi
  40141f:	e8 bc f7 ff ff       	callq  400be0 <exit@plt>

0000000000401424 <read_six_numbers>:
  401424:	48 83 ec 08          	sub    $0x8,%rsp
  401428:	48 89 f2             	mov    %rsi,%rdx
  40142b:	48 8d 4e 04          	lea    0x4(%rsi),%rcx
  40142f:	48 8d 46 14          	lea    0x14(%rsi),%rax
  401433:	50                   	push   %rax
  401434:	48 8d 46 10          	lea    0x10(%rsi),%rax
  401438:	50                   	push   %rax
  401439:	4c 8d 4e 0c          	lea    0xc(%rsi),%r9
  40143d:	4c 8d 46 08          	lea    0x8(%rsi),%r8
  401441:	be 83 25 40 00       	mov    $0x402583,%esi
  401446:	b8 00 00 00 00       	mov    $0x0,%eax
  40144b:	e8 60 f7 ff ff       	callq  400bb0 <__isoc99_sscanf@plt>
  401450:	48 83 c4 10          	add    $0x10,%rsp
  401454:	83 f8 05             	cmp    $0x5,%eax
  401457:	7f 05                	jg     40145e <read_six_numbers+0x3a>
  401459:	e8 a4 ff ff ff       	callq  401402 <explode_bomb>
  40145e:	48 83 c4 08          	add    $0x8,%rsp
  401462:	c3                   	retq   

0000000000401463 <read_line>:
  401463:	48 83 ec 08          	sub    $0x8,%rsp
  401467:	b8 00 00 00 00       	mov    $0x0,%eax
  40146c:	e8 50 ff ff ff       	callq  4013c1 <skip>
  401471:	48 85 c0             	test   %rax,%rax
  401474:	75 6e                	jne    4014e4 <read_line+0x81>
  401476:	48 8b 05 f3 22 20 00 	mov    0x2022f3(%rip),%rax        # 603770 <stdin@@GLIBC_2.2.5>
  40147d:	48 39 05 14 23 20 00 	cmp    %rax,0x202314(%rip)        # 603798 <infile>
  401484:	75 14                	jne    40149a <read_line+0x37>
  401486:	bf 95 25 40 00       	mov    $0x402595,%edi
  40148b:	e8 50 f6 ff ff       	callq  400ae0 <puts@plt>
  401490:	bf 08 00 00 00       	mov    $0x8,%edi
  401495:	e8 46 f7 ff ff       	callq  400be0 <exit@plt>
  40149a:	bf b3 25 40 00       	mov    $0x4025b3,%edi
  40149f:	e8 0c f6 ff ff       	callq  400ab0 <getenv@plt>
  4014a4:	48 85 c0             	test   %rax,%rax
  4014a7:	74 0a                	je     4014b3 <read_line+0x50>
  4014a9:	bf 00 00 00 00       	mov    $0x0,%edi
  4014ae:	e8 2d f7 ff ff       	callq  400be0 <exit@plt>
  4014b3:	48 8b 05 b6 22 20 00 	mov    0x2022b6(%rip),%rax        # 603770 <stdin@@GLIBC_2.2.5>
  4014ba:	48 89 05 d7 22 20 00 	mov    %rax,0x2022d7(%rip)        # 603798 <infile>
  4014c1:	b8 00 00 00 00       	mov    $0x0,%eax
  4014c6:	e8 f6 fe ff ff       	callq  4013c1 <skip>
  4014cb:	48 85 c0             	test   %rax,%rax
  4014ce:	75 14                	jne    4014e4 <read_line+0x81>
  4014d0:	bf 95 25 40 00       	mov    $0x402595,%edi
  4014d5:	e8 06 f6 ff ff       	callq  400ae0 <puts@plt>
  4014da:	bf 00 00 00 00       	mov    $0x0,%edi
  4014df:	e8 fc f6 ff ff       	callq  400be0 <exit@plt>
  4014e4:	8b 35 a6 22 20 00    	mov    0x2022a6(%rip),%esi        # 603790 <num_input_strings>
  4014ea:	48 63 c6             	movslq %esi,%rax
  4014ed:	48 8d 14 80          	lea    (%rax,%rax,4),%rdx
  4014f1:	48 c1 e2 04          	shl    $0x4,%rdx
  4014f5:	48 81 c2 a0 37 60 00 	add    $0x6037a0,%rdx
  4014fc:	b8 00 00 00 00       	mov    $0x0,%eax
  401501:	48 c7 c1 ff ff ff ff 	mov    $0xffffffffffffffff,%rcx
  401508:	48 89 d7             	mov    %rdx,%rdi
  40150b:	f2 ae                	repnz scas %es:(%rdi),%al
  40150d:	48 f7 d1             	not    %rcx
  401510:	48 83 e9 01          	sub    $0x1,%rcx
  401514:	83 f9 4e             	cmp    $0x4e,%ecx
  401517:	7e 46                	jle    40155f <read_line+0xfc>
  401519:	bf be 25 40 00       	mov    $0x4025be,%edi
  40151e:	e8 bd f5 ff ff       	callq  400ae0 <puts@plt>
  401523:	8b 05 67 22 20 00    	mov    0x202267(%rip),%eax        # 603790 <num_input_strings>
  401529:	8d 50 01             	lea    0x1(%rax),%edx
  40152c:	89 15 5e 22 20 00    	mov    %edx,0x20225e(%rip)        # 603790 <num_input_strings>
  401532:	48 98                	cltq   
  401534:	48 6b c0 50          	imul   $0x50,%rax,%rax
  401538:	48 bf 2a 2a 2a 74 72 	movabs $0x636e7572742a2a2a,%rdi
  40153f:	75 6e 63 
  401542:	48 89 b8 a0 37 60 00 	mov    %rdi,0x6037a0(%rax)
  401549:	48 bf 61 74 65 64 2a 	movabs $0x2a2a2a64657461,%rdi
  401550:	2a 2a 00 
  401553:	48 89 b8 a8 37 60 00 	mov    %rdi,0x6037a8(%rax)
  40155a:	e8 a3 fe ff ff       	callq  401402 <explode_bomb>
  40155f:	83 e9 01             	sub    $0x1,%ecx
  401562:	48 63 c9             	movslq %ecx,%rcx
  401565:	48 63 c6             	movslq %esi,%rax
  401568:	48 8d 04 80          	lea    (%rax,%rax,4),%rax
  40156c:	48 c1 e0 04          	shl    $0x4,%rax
  401570:	c6 84 01 a0 37 60 00 	movb   $0x0,0x6037a0(%rcx,%rax,1)
  401577:	00 
  401578:	8d 46 01             	lea    0x1(%rsi),%eax
  40157b:	89 05 0f 22 20 00    	mov    %eax,0x20220f(%rip)        # 603790 <num_input_strings>
  401581:	48 89 d0             	mov    %rdx,%rax
  401584:	48 83 c4 08          	add    $0x8,%rsp
  401588:	c3                   	retq   

0000000000401589 <phase_defused>:
  401589:	48 83 ec 78          	sub    $0x78,%rsp
  40158d:	64 48 8b 04 25 28 00 	mov    %fs:0x28,%rax
  401594:	00 00 
  401596:	48 89 44 24 68       	mov    %rax,0x68(%rsp)
  40159b:	31 c0                	xor    %eax,%eax
  40159d:	83 3d ec 21 20 00 06 	cmpl   $0x6,0x2021ec(%rip)        # 603790 <num_input_strings>
  4015a4:	75 5e                	jne    401604 <phase_defused+0x7b>
  4015a6:	4c 8d 44 24 10       	lea    0x10(%rsp),%r8
  4015ab:	48 8d 4c 24 0c       	lea    0xc(%rsp),%rcx
  4015b0:	48 8d 54 24 08       	lea    0x8(%rsp),%rdx
  4015b5:	be d9 25 40 00       	mov    $0x4025d9,%esi
  4015ba:	bf 90 38 60 00       	mov    $0x603890,%edi
  4015bf:	e8 ec f5 ff ff       	callq  400bb0 <__isoc99_sscanf@plt>
  4015c4:	83 f8 03             	cmp    $0x3,%eax
  4015c7:	75 31                	jne    4015fa <phase_defused+0x71>
  4015c9:	be e2 25 40 00       	mov    $0x4025e2,%esi
  4015ce:	48 8d 7c 24 10       	lea    0x10(%rsp),%rdi
  4015d3:	e8 2b fd ff ff       	callq  401303 <strings_not_equal>
  4015d8:	85 c0                	test   %eax,%eax
  4015da:	75 1e                	jne    4015fa <phase_defused+0x71>
  4015dc:	bf b8 24 40 00       	mov    $0x4024b8,%edi
  4015e1:	e8 fa f4 ff ff       	callq  400ae0 <puts@plt>
  4015e6:	bf e0 24 40 00       	mov    $0x4024e0,%edi
  4015eb:	e8 f0 f4 ff ff       	callq  400ae0 <puts@plt>
  4015f0:	b8 00 00 00 00       	mov    $0x0,%eax
  4015f5:	e8 1f fc ff ff       	callq  401219 <secret_phase>
  4015fa:	bf 18 25 40 00       	mov    $0x402518,%edi
  4015ff:	e8 dc f4 ff ff       	callq  400ae0 <puts@plt>
  401604:	48 8b 44 24 68       	mov    0x68(%rsp),%rax
  401609:	64 48 33 04 25 28 00 	xor    %fs:0x28,%rax
  401610:	00 00 
  401612:	74 05                	je     401619 <phase_defused+0x90>
  401614:	e8 e7 f4 ff ff       	callq  400b00 <__stack_chk_fail@plt>
  401619:	48 83 c4 78          	add    $0x78,%rsp
  40161d:	c3                   	retq   

000000000040161e <sigalrm_handler>:
  40161e:	48 83 ec 08          	sub    $0x8,%rsp
  401622:	b9 00 00 00 00       	mov    $0x0,%ecx
  401627:	ba 38 26 40 00       	mov    $0x402638,%edx
  40162c:	be 01 00 00 00       	mov    $0x1,%esi
  401631:	48 8b 3d 48 21 20 00 	mov    0x202148(%rip),%rdi        # 603780 <stderr@@GLIBC_2.2.5>
  401638:	b8 00 00 00 00       	mov    $0x0,%eax
  40163d:	e8 be f5 ff ff       	callq  400c00 <__fprintf_chk@plt>
  401642:	bf 01 00 00 00       	mov    $0x1,%edi
  401647:	e8 94 f5 ff ff       	callq  400be0 <exit@plt>

000000000040164c <rio_readlineb>:
  40164c:	41 56                	push   %r14
  40164e:	41 55                	push   %r13
  401650:	41 54                	push   %r12
  401652:	55                   	push   %rbp
  401653:	53                   	push   %rbx
  401654:	48 83 ec 10          	sub    $0x10,%rsp
  401658:	48 89 fb             	mov    %rdi,%rbx
  40165b:	49 89 f5             	mov    %rsi,%r13
  40165e:	49 89 d6             	mov    %rdx,%r14
  401661:	64 48 8b 04 25 28 00 	mov    %fs:0x28,%rax
  401668:	00 00 
  40166a:	48 89 44 24 08       	mov    %rax,0x8(%rsp)
  40166f:	31 c0                	xor    %eax,%eax
  401671:	41 bc 01 00 00 00    	mov    $0x1,%r12d
  401677:	48 8d 6f 10          	lea    0x10(%rdi),%rbp
  40167b:	48 83 fa 01          	cmp    $0x1,%rdx
  40167f:	77 2c                	ja     4016ad <rio_readlineb+0x61>
  401681:	eb 6d                	jmp    4016f0 <rio_readlineb+0xa4>
  401683:	ba 00 20 00 00       	mov    $0x2000,%edx
  401688:	48 89 ee             	mov    %rbp,%rsi
  40168b:	8b 3b                	mov    (%rbx),%edi
  40168d:	e8 9e f4 ff ff       	callq  400b30 <read@plt>
  401692:	89 43 04             	mov    %eax,0x4(%rbx)
  401695:	85 c0                	test   %eax,%eax
  401697:	79 0c                	jns    4016a5 <rio_readlineb+0x59>
  401699:	e8 22 f4 ff ff       	callq  400ac0 <__errno_location@plt>
  40169e:	83 38 04             	cmpl   $0x4,(%rax)
  4016a1:	74 0a                	je     4016ad <rio_readlineb+0x61>
  4016a3:	eb 6c                	jmp    401711 <rio_readlineb+0xc5>
  4016a5:	85 c0                	test   %eax,%eax
  4016a7:	74 71                	je     40171a <rio_readlineb+0xce>
  4016a9:	48 89 6b 08          	mov    %rbp,0x8(%rbx)
  4016ad:	8b 43 04             	mov    0x4(%rbx),%eax
  4016b0:	85 c0                	test   %eax,%eax
  4016b2:	7e cf                	jle    401683 <rio_readlineb+0x37>
  4016b4:	48 8b 53 08          	mov    0x8(%rbx),%rdx
  4016b8:	0f b6 0a             	movzbl (%rdx),%ecx
  4016bb:	88 4c 24 07          	mov    %cl,0x7(%rsp)
  4016bf:	48 83 c2 01          	add    $0x1,%rdx
  4016c3:	48 89 53 08          	mov    %rdx,0x8(%rbx)
  4016c7:	83 e8 01             	sub    $0x1,%eax
  4016ca:	89 43 04             	mov    %eax,0x4(%rbx)
  4016cd:	49 83 c5 01          	add    $0x1,%r13
  4016d1:	41 88 4d ff          	mov    %cl,-0x1(%r13)
  4016d5:	80 f9 0a             	cmp    $0xa,%cl
  4016d8:	75 0a                	jne    4016e4 <rio_readlineb+0x98>
  4016da:	eb 14                	jmp    4016f0 <rio_readlineb+0xa4>
  4016dc:	41 83 fc 01          	cmp    $0x1,%r12d
  4016e0:	75 0e                	jne    4016f0 <rio_readlineb+0xa4>
  4016e2:	eb 16                	jmp    4016fa <rio_readlineb+0xae>
  4016e4:	41 83 c4 01          	add    $0x1,%r12d
  4016e8:	49 63 c4             	movslq %r12d,%rax
  4016eb:	4c 39 f0             	cmp    %r14,%rax
  4016ee:	72 bd                	jb     4016ad <rio_readlineb+0x61>
  4016f0:	41 c6 45 00 00       	movb   $0x0,0x0(%r13)
  4016f5:	49 63 c4             	movslq %r12d,%rax
  4016f8:	eb 05                	jmp    4016ff <rio_readlineb+0xb3>
  4016fa:	b8 00 00 00 00       	mov    $0x0,%eax
  4016ff:	48 8b 4c 24 08       	mov    0x8(%rsp),%rcx
  401704:	64 48 33 0c 25 28 00 	xor    %fs:0x28,%rcx
  40170b:	00 00 
  40170d:	74 22                	je     401731 <rio_readlineb+0xe5>
  40170f:	eb 1b                	jmp    40172c <rio_readlineb+0xe0>
  401711:	48 c7 c0 ff ff ff ff 	mov    $0xffffffffffffffff,%rax
  401718:	eb 05                	jmp    40171f <rio_readlineb+0xd3>
  40171a:	b8 00 00 00 00       	mov    $0x0,%eax
  40171f:	85 c0                	test   %eax,%eax
  401721:	74 b9                	je     4016dc <rio_readlineb+0x90>
  401723:	48 c7 c0 ff ff ff ff 	mov    $0xffffffffffffffff,%rax
  40172a:	eb d3                	jmp    4016ff <rio_readlineb+0xb3>
  40172c:	e8 cf f3 ff ff       	callq  400b00 <__stack_chk_fail@plt>
  401731:	48 83 c4 10          	add    $0x10,%rsp
  401735:	5b                   	pop    %rbx
  401736:	5d                   	pop    %rbp
  401737:	41 5c                	pop    %r12
  401739:	41 5d                	pop    %r13
  40173b:	41 5e                	pop    %r14
  40173d:	c3                   	retq   

000000000040173e <submitr>:
  40173e:	41 57                	push   %r15
  401740:	41 56                	push   %r14
  401742:	41 55                	push   %r13
  401744:	41 54                	push   %r12
  401746:	55                   	push   %rbp
  401747:	53                   	push   %rbx
  401748:	48 81 ec 68 a0 00 00 	sub    $0xa068,%rsp
  40174f:	48 89 fd             	mov    %rdi,%rbp
  401752:	41 89 f5             	mov    %esi,%r13d
  401755:	48 89 54 24 08       	mov    %rdx,0x8(%rsp)
  40175a:	48 89 4c 24 10       	mov    %rcx,0x10(%rsp)
  40175f:	4c 89 44 24 18       	mov    %r8,0x18(%rsp)
  401764:	4c 89 cb             	mov    %r9,%rbx
  401767:	4c 8b bc 24 a0 a0 00 	mov    0xa0a0(%rsp),%r15
  40176e:	00 
  40176f:	64 48 8b 04 25 28 00 	mov    %fs:0x28,%rax
  401776:	00 00 
  401778:	48 89 84 24 58 a0 00 	mov    %rax,0xa058(%rsp)
  40177f:	00 
  401780:	31 c0                	xor    %eax,%eax
  401782:	c7 44 24 2c 00 00 00 	movl   $0x0,0x2c(%rsp)
  401789:	00 
  40178a:	ba 00 00 00 00       	mov    $0x0,%edx
  40178f:	be 01 00 00 00       	mov    $0x1,%esi
  401794:	bf 02 00 00 00       	mov    $0x2,%edi
  401799:	e8 a2 f4 ff ff       	callq  400c40 <socket@plt>
  40179e:	85 c0                	test   %eax,%eax
  4017a0:	79 50                	jns    4017f2 <submitr+0xb4>
  4017a2:	48 b8 45 72 72 6f 72 	movabs $0x43203a726f727245,%rax
  4017a9:	3a 20 43 
  4017ac:	49 89 07             	mov    %rax,(%r15)
  4017af:	48 b8 6c 69 65 6e 74 	movabs $0x6e7520746e65696c,%rax
  4017b6:	20 75 6e 
  4017b9:	49 89 47 08          	mov    %rax,0x8(%r15)
  4017bd:	48 b8 61 62 6c 65 20 	movabs $0x206f7420656c6261,%rax
  4017c4:	74 6f 20 
  4017c7:	49 89 47 10          	mov    %rax,0x10(%r15)
  4017cb:	48 b8 63 72 65 61 74 	movabs $0x7320657461657263,%rax
  4017d2:	65 20 73 
  4017d5:	49 89 47 18          	mov    %rax,0x18(%r15)
  4017d9:	41 c7 47 20 6f 63 6b 	movl   $0x656b636f,0x20(%r15)
  4017e0:	65 
  4017e1:	66 41 c7 47 24 74 00 	movw   $0x74,0x24(%r15)
  4017e8:	b8 ff ff ff ff       	mov    $0xffffffff,%eax
  4017ed:	e9 15 06 00 00       	jmpq   401e07 <submitr+0x6c9>
  4017f2:	41 89 c4             	mov    %eax,%r12d
  4017f5:	48 89 ef             	mov    %rbp,%rdi
  4017f8:	e8 73 f3 ff ff       	callq  400b70 <gethostbyname@plt>
  4017fd:	48 85 c0             	test   %rax,%rax
  401800:	75 6b                	jne    40186d <submitr+0x12f>
  401802:	48 b8 45 72 72 6f 72 	movabs $0x44203a726f727245,%rax
  401809:	3a 20 44 
  40180c:	49 89 07             	mov    %rax,(%r15)
  40180f:	48 b8 4e 53 20 69 73 	movabs $0x6e7520736920534e,%rax
  401816:	20 75 6e 
  401819:	49 89 47 08          	mov    %rax,0x8(%r15)
  40181d:	48 b8 61 62 6c 65 20 	movabs $0x206f7420656c6261,%rax
  401824:	74 6f 20 
  401827:	49 89 47 10          	mov    %rax,0x10(%r15)
  40182b:	48 b8 72 65 73 6f 6c 	movabs $0x2065766c6f736572,%rax
  401832:	76 65 20 
  401835:	49 89 47 18          	mov    %rax,0x18(%r15)
  401839:	48 b8 73 65 72 76 65 	movabs $0x6120726576726573,%rax
  401840:	72 20 61 
  401843:	49 89 47 20          	mov    %rax,0x20(%r15)
  401847:	41 c7 47 28 64 64 72 	movl   $0x65726464,0x28(%r15)
  40184e:	65 
  40184f:	66 41 c7 47 2c 73 73 	movw   $0x7373,0x2c(%r15)
  401856:	41 c6 47 2e 00       	movb   $0x0,0x2e(%r15)
  40185b:	44 89 e7             	mov    %r12d,%edi
  40185e:	e8 bd f2 ff ff       	callq  400b20 <close@plt>
  401863:	b8 ff ff ff ff       	mov    $0xffffffff,%eax
  401868:	e9 9a 05 00 00       	jmpq   401e07 <submitr+0x6c9>
  40186d:	48 c7 44 24 30 00 00 	movq   $0x0,0x30(%rsp)
  401874:	00 00 
  401876:	48 c7 44 24 38 00 00 	movq   $0x0,0x38(%rsp)
  40187d:	00 00 
  40187f:	66 c7 44 24 30 02 00 	movw   $0x2,0x30(%rsp)
  401886:	48 63 50 14          	movslq 0x14(%rax),%rdx
  40188a:	48 8b 40 18          	mov    0x18(%rax),%rax
  40188e:	48 8d 7c 24 34       	lea    0x34(%rsp),%rdi
  401893:	b9 0c 00 00 00       	mov    $0xc,%ecx
  401898:	48 8b 30             	mov    (%rax),%rsi
  40189b:	e8 e0 f2 ff ff       	callq  400b80 <__memmove_chk@plt>
  4018a0:	66 41 c1 cd 08       	ror    $0x8,%r13w
  4018a5:	66 44 89 6c 24 32    	mov    %r13w,0x32(%rsp)
  4018ab:	ba 10 00 00 00       	mov    $0x10,%edx
  4018b0:	48 8d 74 24 30       	lea    0x30(%rsp),%rsi
  4018b5:	44 89 e7             	mov    %r12d,%edi
  4018b8:	e8 33 f3 ff ff       	callq  400bf0 <connect@plt>
  4018bd:	85 c0                	test   %eax,%eax
  4018bf:	79 5d                	jns    40191e <submitr+0x1e0>
  4018c1:	48 b8 45 72 72 6f 72 	movabs $0x55203a726f727245,%rax
  4018c8:	3a 20 55 
  4018cb:	49 89 07             	mov    %rax,(%r15)
  4018ce:	48 b8 6e 61 62 6c 65 	movabs $0x6f7420656c62616e,%rax
  4018d5:	20 74 6f 
  4018d8:	49 89 47 08          	mov    %rax,0x8(%r15)
  4018dc:	48 b8 20 63 6f 6e 6e 	movabs $0x7463656e6e6f6320,%rax
  4018e3:	65 63 74 
  4018e6:	49 89 47 10          	mov    %rax,0x10(%r15)
  4018ea:	48 b8 20 74 6f 20 74 	movabs $0x20656874206f7420,%rax
  4018f1:	68 65 20 
  4018f4:	49 89 47 18          	mov    %rax,0x18(%r15)
  4018f8:	41 c7 47 20 73 65 72 	movl   $0x76726573,0x20(%r15)
  4018ff:	76 
  401900:	66 41 c7 47 24 65 72 	movw   $0x7265,0x24(%r15)
  401907:	41 c6 47 26 00       	movb   $0x0,0x26(%r15)
  40190c:	44 89 e7             	mov    %r12d,%edi
  40190f:	e8 0c f2 ff ff       	callq  400b20 <close@plt>
  401914:	b8 ff ff ff ff       	mov    $0xffffffff,%eax
  401919:	e9 e9 04 00 00       	jmpq   401e07 <submitr+0x6c9>
  40191e:	49 c7 c1 ff ff ff ff 	mov    $0xffffffffffffffff,%r9
  401925:	b8 00 00 00 00       	mov    $0x0,%eax
  40192a:	4c 89 c9             	mov    %r9,%rcx
  40192d:	48 89 df             	mov    %rbx,%rdi
  401930:	f2 ae                	repnz scas %es:(%rdi),%al
  401932:	48 f7 d1             	not    %rcx
  401935:	48 89 ce             	mov    %rcx,%rsi
  401938:	4c 89 c9             	mov    %r9,%rcx
  40193b:	48 8b 7c 24 08       	mov    0x8(%rsp),%rdi
  401940:	f2 ae                	repnz scas %es:(%rdi),%al
  401942:	49 89 c8             	mov    %rcx,%r8
  401945:	4c 89 c9             	mov    %r9,%rcx
  401948:	48 8b 7c 24 10       	mov    0x10(%rsp),%rdi
  40194d:	f2 ae                	repnz scas %es:(%rdi),%al
  40194f:	48 f7 d1             	not    %rcx
  401952:	48 89 ca             	mov    %rcx,%rdx
  401955:	4c 89 c9             	mov    %r9,%rcx
  401958:	48 8b 7c 24 18       	mov    0x18(%rsp),%rdi
  40195d:	f2 ae                	repnz scas %es:(%rdi),%al
  40195f:	4c 29 c2             	sub    %r8,%rdx
  401962:	48 29 ca             	sub    %rcx,%rdx
  401965:	48 8d 44 76 fd       	lea    -0x3(%rsi,%rsi,2),%rax
  40196a:	48 8d 44 02 7b       	lea    0x7b(%rdx,%rax,1),%rax
  40196f:	48 3d 00 20 00 00    	cmp    $0x2000,%rax
  401975:	76 73                	jbe    4019ea <submitr+0x2ac>
  401977:	48 b8 45 72 72 6f 72 	movabs $0x52203a726f727245,%rax
  40197e:	3a 20 52 
  401981:	49 89 07             	mov    %rax,(%r15)
  401984:	48 b8 65 73 75 6c 74 	movabs $0x747320746c757365,%rax
  40198b:	20 73 74 
  40198e:	49 89 47 08          	mov    %rax,0x8(%r15)
  401992:	48 b8 72 69 6e 67 20 	movabs $0x6f6f7420676e6972,%rax
  401999:	74 6f 6f 
  40199c:	49 89 47 10          	mov    %rax,0x10(%r15)
  4019a0:	48 b8 20 6c 61 72 67 	movabs $0x202e656772616c20,%rax
  4019a7:	65 2e 20 
  4019aa:	49 89 47 18          	mov    %rax,0x18(%r15)
  4019ae:	48 b8 49 6e 63 72 65 	movabs $0x6573616572636e49,%rax
  4019b5:	61 73 65 
  4019b8:	49 89 47 20          	mov    %rax,0x20(%r15)
  4019bc:	48 b8 20 53 55 42 4d 	movabs $0x5254494d42555320,%rax
  4019c3:	49 54 52 
  4019c6:	49 89 47 28          	mov    %rax,0x28(%r15)
  4019ca:	48 b8 5f 4d 41 58 42 	movabs $0x46554258414d5f,%rax
  4019d1:	55 46 00 
  4019d4:	49 89 47 30          	mov    %rax,0x30(%r15)
  4019d8:	44 89 e7             	mov    %r12d,%edi
  4019db:	e8 40 f1 ff ff       	callq  400b20 <close@plt>
  4019e0:	b8 ff ff ff ff       	mov    $0xffffffff,%eax
  4019e5:	e9 1d 04 00 00       	jmpq   401e07 <submitr+0x6c9>
  4019ea:	48 8d 94 24 50 40 00 	lea    0x4050(%rsp),%rdx
  4019f1:	00 
  4019f2:	b9 00 04 00 00       	mov    $0x400,%ecx
  4019f7:	b8 00 00 00 00       	mov    $0x0,%eax
  4019fc:	48 89 d7             	mov    %rdx,%rdi
  4019ff:	f3 48 ab             	rep stos %rax,%es:(%rdi)
  401a02:	48 c7 c1 ff ff ff ff 	mov    $0xffffffffffffffff,%rcx
  401a09:	48 89 df             	mov    %rbx,%rdi
  401a0c:	f2 ae                	repnz scas %es:(%rdi),%al
  401a0e:	48 89 c8             	mov    %rcx,%rax
  401a11:	48 f7 d0             	not    %rax
  401a14:	48 83 e8 01          	sub    $0x1,%rax
  401a18:	85 c0                	test   %eax,%eax
  401a1a:	0f 84 90 04 00 00    	je     401eb0 <submitr+0x772>
  401a20:	8d 40 ff             	lea    -0x1(%rax),%eax
  401a23:	4c 8d 74 03 01       	lea    0x1(%rbx,%rax,1),%r14
  401a28:	48 89 d5             	mov    %rdx,%rbp
  401a2b:	49 bd d9 ff 00 00 00 	movabs $0x2000000000ffd9,%r13
  401a32:	00 20 00 
  401a35:	44 0f b6 03          	movzbl (%rbx),%r8d
  401a39:	41 8d 40 d6          	lea    -0x2a(%r8),%eax
  401a3d:	3c 35                	cmp    $0x35,%al
  401a3f:	77 06                	ja     401a47 <submitr+0x309>
  401a41:	49 0f a3 c5          	bt     %rax,%r13
  401a45:	72 0d                	jb     401a54 <submitr+0x316>
  401a47:	44 89 c0             	mov    %r8d,%eax
  401a4a:	83 e0 df             	and    $0xffffffdf,%eax
  401a4d:	83 e8 41             	sub    $0x41,%eax
  401a50:	3c 19                	cmp    $0x19,%al
  401a52:	77 0a                	ja     401a5e <submitr+0x320>
  401a54:	44 88 45 00          	mov    %r8b,0x0(%rbp)
  401a58:	48 8d 6d 01          	lea    0x1(%rbp),%rbp
  401a5c:	eb 6c                	jmp    401aca <submitr+0x38c>
  401a5e:	41 80 f8 20          	cmp    $0x20,%r8b
  401a62:	75 0a                	jne    401a6e <submitr+0x330>
  401a64:	c6 45 00 2b          	movb   $0x2b,0x0(%rbp)
  401a68:	48 8d 6d 01          	lea    0x1(%rbp),%rbp
  401a6c:	eb 5c                	jmp    401aca <submitr+0x38c>
  401a6e:	41 8d 40 e0          	lea    -0x20(%r8),%eax
  401a72:	3c 5f                	cmp    $0x5f,%al
  401a74:	76 0a                	jbe    401a80 <submitr+0x342>
  401a76:	41 80 f8 09          	cmp    $0x9,%r8b
  401a7a:	0f 85 a3 03 00 00    	jne    401e23 <submitr+0x6e5>
  401a80:	45 0f b6 c0          	movzbl %r8b,%r8d
  401a84:	b9 08 27 40 00       	mov    $0x402708,%ecx
  401a89:	ba 08 00 00 00       	mov    $0x8,%edx
  401a8e:	be 01 00 00 00       	mov    $0x1,%esi
  401a93:	48 8d bc 24 50 80 00 	lea    0x8050(%rsp),%rdi
  401a9a:	00 
  401a9b:	b8 00 00 00 00       	mov    $0x0,%eax
  401aa0:	e8 8b f1 ff ff       	callq  400c30 <__sprintf_chk@plt>
  401aa5:	0f b6 84 24 50 80 00 	movzbl 0x8050(%rsp),%eax
  401aac:	00 
  401aad:	88 45 00             	mov    %al,0x0(%rbp)
  401ab0:	0f b6 84 24 51 80 00 	movzbl 0x8051(%rsp),%eax
  401ab7:	00 
  401ab8:	88 45 01             	mov    %al,0x1(%rbp)
  401abb:	0f b6 84 24 52 80 00 	movzbl 0x8052(%rsp),%eax
  401ac2:	00 
  401ac3:	88 45 02             	mov    %al,0x2(%rbp)
  401ac6:	48 8d 6d 03          	lea    0x3(%rbp),%rbp
  401aca:	48 83 c3 01          	add    $0x1,%rbx
  401ace:	49 39 de             	cmp    %rbx,%r14
  401ad1:	0f 85 5e ff ff ff    	jne    401a35 <submitr+0x2f7>
  401ad7:	e9 d4 03 00 00       	jmpq   401eb0 <submitr+0x772>
  401adc:	48 89 da             	mov    %rbx,%rdx
  401adf:	48 89 ee             	mov    %rbp,%rsi
  401ae2:	44 89 e7             	mov    %r12d,%edi
  401ae5:	e8 06 f0 ff ff       	callq  400af0 <write@plt>
  401aea:	48 85 c0             	test   %rax,%rax
  401aed:	7f 0f                	jg     401afe <submitr+0x3c0>
  401aef:	e8 cc ef ff ff       	callq  400ac0 <__errno_location@plt>
  401af4:	83 38 04             	cmpl   $0x4,(%rax)
  401af7:	75 12                	jne    401b0b <submitr+0x3cd>
  401af9:	b8 00 00 00 00       	mov    $0x0,%eax
  401afe:	48 01 c5             	add    %rax,%rbp
  401b01:	48 29 c3             	sub    %rax,%rbx
  401b04:	75 d6                	jne    401adc <submitr+0x39e>
  401b06:	4d 85 ed             	test   %r13,%r13
  401b09:	79 5f                	jns    401b6a <submitr+0x42c>
  401b0b:	48 b8 45 72 72 6f 72 	movabs $0x43203a726f727245,%rax
  401b12:	3a 20 43 
  401b15:	49 89 07             	mov    %rax,(%r15)
  401b18:	48 b8 6c 69 65 6e 74 	movabs $0x6e7520746e65696c,%rax
  401b1f:	20 75 6e 
  401b22:	49 89 47 08          	mov    %rax,0x8(%r15)
  401b26:	48 b8 61 62 6c 65 20 	movabs $0x206f7420656c6261,%rax
  401b2d:	74 6f 20 
  401b30:	49 89 47 10          	mov    %rax,0x10(%r15)
  401b34:	48 b8 77 72 69 74 65 	movabs $0x6f74206574697277,%rax
  401b3b:	20 74 6f 
  401b3e:	49 89 47 18          	mov    %rax,0x18(%r15)
  401b42:	48 b8 20 74 68 65 20 	movabs $0x7265732065687420,%rax
  401b49:	73 65 72 
  401b4c:	49 89 47 20          	mov    %rax,0x20(%r15)
  401b50:	41 c7 47 28 76 65 72 	movl   $0x726576,0x28(%r15)
  401b57:	00 
  401b58:	44 89 e7             	mov    %r12d,%edi
  401b5b:	e8 c0 ef ff ff       	callq  400b20 <close@plt>
  401b60:	b8 ff ff ff ff       	mov    $0xffffffff,%eax
  401b65:	e9 9d 02 00 00       	jmpq   401e07 <submitr+0x6c9>
  401b6a:	44 89 64 24 40       	mov    %r12d,0x40(%rsp)
  401b6f:	c7 44 24 44 00 00 00 	movl   $0x0,0x44(%rsp)
  401b76:	00 
  401b77:	48 8d 44 24 50       	lea    0x50(%rsp),%rax
  401b7c:	48 89 44 24 48       	mov    %rax,0x48(%rsp)
  401b81:	ba 00 20 00 00       	mov    $0x2000,%edx
  401b86:	48 8d b4 24 50 20 00 	lea    0x2050(%rsp),%rsi
  401b8d:	00 
  401b8e:	48 8d 7c 24 40       	lea    0x40(%rsp),%rdi
  401b93:	e8 b4 fa ff ff       	callq  40164c <rio_readlineb>
  401b98:	48 85 c0             	test   %rax,%rax
  401b9b:	7f 74                	jg     401c11 <submitr+0x4d3>
  401b9d:	48 b8 45 72 72 6f 72 	movabs $0x43203a726f727245,%rax
  401ba4:	3a 20 43 
  401ba7:	49 89 07             	mov    %rax,(%r15)
  401baa:	48 b8 6c 69 65 6e 74 	movabs $0x6e7520746e65696c,%rax
  401bb1:	20 75 6e 
  401bb4:	49 89 47 08          	mov    %rax,0x8(%r15)
  401bb8:	48 b8 61 62 6c 65 20 	movabs $0x206f7420656c6261,%rax
  401bbf:	74 6f 20 
  401bc2:	49 89 47 10          	mov    %rax,0x10(%r15)
  401bc6:	48 b8 72 65 61 64 20 	movabs $0x7269662064616572,%rax
  401bcd:	66 69 72 
  401bd0:	49 89 47 18          	mov    %rax,0x18(%r15)
  401bd4:	48 b8 73 74 20 68 65 	movabs $0x6564616568207473,%rax
  401bdb:	61 64 65 
  401bde:	49 89 47 20          	mov    %rax,0x20(%r15)
  401be2:	48 b8 72 20 66 72 6f 	movabs $0x73206d6f72662072,%rax
  401be9:	6d 20 73 
  401bec:	49 89 47 28          	mov    %rax,0x28(%r15)
  401bf0:	41 c7 47 30 65 72 76 	movl   $0x65767265,0x30(%r15)
  401bf7:	65 
  401bf8:	66 41 c7 47 34 72 00 	movw   $0x72,0x34(%r15)
  401bff:	44 89 e7             	mov    %r12d,%edi
  401c02:	e8 19 ef ff ff       	callq  400b20 <close@plt>
  401c07:	b8 ff ff ff ff       	mov    $0xffffffff,%eax
  401c0c:	e9 f6 01 00 00       	jmpq   401e07 <submitr+0x6c9>
  401c11:	4c 8d 84 24 50 80 00 	lea    0x8050(%rsp),%r8
  401c18:	00 
  401c19:	48 8d 4c 24 2c       	lea    0x2c(%rsp),%rcx
  401c1e:	48 8d 94 24 50 60 00 	lea    0x6050(%rsp),%rdx
  401c25:	00 
  401c26:	be 0f 27 40 00       	mov    $0x40270f,%esi
  401c2b:	48 8d bc 24 50 20 00 	lea    0x2050(%rsp),%rdi
  401c32:	00 
  401c33:	b8 00 00 00 00       	mov    $0x0,%eax
  401c38:	e8 73 ef ff ff       	callq  400bb0 <__isoc99_sscanf@plt>
  401c3d:	44 8b 44 24 2c       	mov    0x2c(%rsp),%r8d
  401c42:	41 81 f8 c8 00 00 00 	cmp    $0xc8,%r8d
  401c49:	0f 84 be 00 00 00    	je     401d0d <submitr+0x5cf>
  401c4f:	4c 8d 8c 24 50 80 00 	lea    0x8050(%rsp),%r9
  401c56:	00 
  401c57:	b9 60 26 40 00       	mov    $0x402660,%ecx
  401c5c:	48 c7 c2 ff ff ff ff 	mov    $0xffffffffffffffff,%rdx
  401c63:	be 01 00 00 00       	mov    $0x1,%esi
  401c68:	4c 89 ff             	mov    %r15,%rdi
  401c6b:	b8 00 00 00 00       	mov    $0x0,%eax
  401c70:	e8 bb ef ff ff       	callq  400c30 <__sprintf_chk@plt>
  401c75:	44 89 e7             	mov    %r12d,%edi
  401c78:	e8 a3 ee ff ff       	callq  400b20 <close@plt>
  401c7d:	b8 ff ff ff ff       	mov    $0xffffffff,%eax
  401c82:	e9 80 01 00 00       	jmpq   401e07 <submitr+0x6c9>
  401c87:	ba 00 20 00 00       	mov    $0x2000,%edx
  401c8c:	48 8d b4 24 50 20 00 	lea    0x2050(%rsp),%rsi
  401c93:	00 
  401c94:	48 8d 7c 24 40       	lea    0x40(%rsp),%rdi
  401c99:	e8 ae f9 ff ff       	callq  40164c <rio_readlineb>
  401c9e:	48 85 c0             	test   %rax,%rax
  401ca1:	7f 6a                	jg     401d0d <submitr+0x5cf>
  401ca3:	48 b8 45 72 72 6f 72 	movabs $0x43203a726f727245,%rax
  401caa:	3a 20 43 
  401cad:	49 89 07             	mov    %rax,(%r15)
  401cb0:	48 b8 6c 69 65 6e 74 	movabs $0x6e7520746e65696c,%rax
  401cb7:	20 75 6e 
  401cba:	49 89 47 08          	mov    %rax,0x8(%r15)
  401cbe:	48 b8 61 62 6c 65 20 	movabs $0x206f7420656c6261,%rax
  401cc5:	74 6f 20 
  401cc8:	49 89 47 10          	mov    %rax,0x10(%r15)
  401ccc:	48 b8 72 65 61 64 20 	movabs $0x6165682064616572,%rax
  401cd3:	68 65 61 
  401cd6:	49 89 47 18          	mov    %rax,0x18(%r15)
  401cda:	48 b8 64 65 72 73 20 	movabs $0x6f72662073726564,%rax
  401ce1:	66 72 6f 
  401ce4:	49 89 47 20          	mov    %rax,0x20(%r15)
  401ce8:	48 b8 6d 20 73 65 72 	movabs $0x726576726573206d,%rax
  401cef:	76 65 72 
  401cf2:	49 89 47 28          	mov    %rax,0x28(%r15)
  401cf6:	41 c6 47 30 00       	movb   $0x0,0x30(%r15)
  401cfb:	44 89 e7             	mov    %r12d,%edi
  401cfe:	e8 1d ee ff ff       	callq  400b20 <close@plt>
  401d03:	b8 ff ff ff ff       	mov    $0xffffffff,%eax
  401d08:	e9 fa 00 00 00       	jmpq   401e07 <submitr+0x6c9>
  401d0d:	80 bc 24 50 20 00 00 	cmpb   $0xd,0x2050(%rsp)
  401d14:	0d 
  401d15:	0f 85 6c ff ff ff    	jne    401c87 <submitr+0x549>
  401d1b:	80 bc 24 51 20 00 00 	cmpb   $0xa,0x2051(%rsp)
  401d22:	0a 
  401d23:	0f 85 5e ff ff ff    	jne    401c87 <submitr+0x549>
  401d29:	80 bc 24 52 20 00 00 	cmpb   $0x0,0x2052(%rsp)
  401d30:	00 
  401d31:	0f 85 50 ff ff ff    	jne    401c87 <submitr+0x549>
  401d37:	ba 00 20 00 00       	mov    $0x2000,%edx
  401d3c:	48 8d b4 24 50 20 00 	lea    0x2050(%rsp),%rsi
  401d43:	00 
  401d44:	48 8d 7c 24 40       	lea    0x40(%rsp),%rdi
  401d49:	e8 fe f8 ff ff       	callq  40164c <rio_readlineb>
  401d4e:	48 85 c0             	test   %rax,%rax
  401d51:	7f 70                	jg     401dc3 <submitr+0x685>
  401d53:	48 b8 45 72 72 6f 72 	movabs $0x43203a726f727245,%rax
  401d5a:	3a 20 43 
  401d5d:	49 89 07             	mov    %rax,(%r15)
  401d60:	48 b8 6c 69 65 6e 74 	movabs $0x6e7520746e65696c,%rax
  401d67:	20 75 6e 
  401d6a:	49 89 47 08          	mov    %rax,0x8(%r15)
  401d6e:	48 b8 61 62 6c 65 20 	movabs $0x206f7420656c6261,%rax
  401d75:	74 6f 20 
  401d78:	49 89 47 10          	mov    %rax,0x10(%r15)
  401d7c:	48 b8 72 65 61 64 20 	movabs $0x6174732064616572,%rax
  401d83:	73 74 61 
  401d86:	49 89 47 18          	mov    %rax,0x18(%r15)
  401d8a:	48 b8 74 75 73 20 6d 	movabs $0x7373656d20737574,%rax
  401d91:	65 73 73 
  401d94:	49 89 47 20          	mov    %rax,0x20(%r15)
  401d98:	48 b8 61 67 65 20 66 	movabs $0x6d6f726620656761,%rax
  401d9f:	72 6f 6d 
  401da2:	49 89 47 28          	mov    %rax,0x28(%r15)
  401da6:	48 b8 20 73 65 72 76 	movabs $0x72657672657320,%rax
  401dad:	65 72 00 
  401db0:	49 89 47 30          	mov    %rax,0x30(%r15)
  401db4:	44 89 e7             	mov    %r12d,%edi
  401db7:	e8 64 ed ff ff       	callq  400b20 <close@plt>
  401dbc:	b8 ff ff ff ff       	mov    $0xffffffff,%eax
  401dc1:	eb 44                	jmp    401e07 <submitr+0x6c9>
  401dc3:	48 8d b4 24 50 20 00 	lea    0x2050(%rsp),%rsi
  401dca:	00 
  401dcb:	4c 89 ff             	mov    %r15,%rdi
  401dce:	e8 fd ec ff ff       	callq  400ad0 <strcpy@plt>
  401dd3:	44 89 e7             	mov    %r12d,%edi
  401dd6:	e8 45 ed ff ff       	callq  400b20 <close@plt>
  401ddb:	41 0f b6 17          	movzbl (%r15),%edx
  401ddf:	b8 4f 00 00 00       	mov    $0x4f,%eax
  401de4:	29 d0                	sub    %edx,%eax
  401de6:	75 15                	jne    401dfd <submitr+0x6bf>
  401de8:	41 0f b6 57 01       	movzbl 0x1(%r15),%edx
  401ded:	b8 4b 00 00 00       	mov    $0x4b,%eax
  401df2:	29 d0                	sub    %edx,%eax
  401df4:	75 07                	jne    401dfd <submitr+0x6bf>
  401df6:	41 0f b6 47 02       	movzbl 0x2(%r15),%eax
  401dfb:	f7 d8                	neg    %eax
  401dfd:	85 c0                	test   %eax,%eax
  401dff:	0f 95 c0             	setne  %al
  401e02:	0f b6 c0             	movzbl %al,%eax
  401e05:	f7 d8                	neg    %eax
  401e07:	48 8b 8c 24 58 a0 00 	mov    0xa058(%rsp),%rcx
  401e0e:	00 
  401e0f:	64 48 33 0c 25 28 00 	xor    %fs:0x28,%rcx
  401e16:	00 00 
  401e18:	0f 84 0a 01 00 00    	je     401f28 <submitr+0x7ea>
  401e1e:	e9 00 01 00 00       	jmpq   401f23 <submitr+0x7e5>
  401e23:	48 b8 45 72 72 6f 72 	movabs $0x52203a726f727245,%rax
  401e2a:	3a 20 52 
  401e2d:	49 89 07             	mov    %rax,(%r15)
  401e30:	48 b8 65 73 75 6c 74 	movabs $0x747320746c757365,%rax
  401e37:	20 73 74 
  401e3a:	49 89 47 08          	mov    %rax,0x8(%r15)
  401e3e:	48 b8 72 69 6e 67 20 	movabs $0x6e6f6320676e6972,%rax
  401e45:	63 6f 6e 
  401e48:	49 89 47 10          	mov    %rax,0x10(%r15)
  401e4c:	48 b8 74 61 69 6e 73 	movabs $0x6e6120736e696174,%rax
  401e53:	20 61 6e 
  401e56:	49 89 47 18          	mov    %rax,0x18(%r15)
  401e5a:	48 b8 20 69 6c 6c 65 	movabs $0x6c6167656c6c6920,%rax
  401e61:	67 61 6c 
  401e64:	49 89 47 20          	mov    %rax,0x20(%r15)
  401e68:	48 b8 20 6f 72 20 75 	movabs $0x72706e7520726f20,%rax
  401e6f:	6e 70 72 
  401e72:	49 89 47 28          	mov    %rax,0x28(%r15)
  401e76:	48 b8 69 6e 74 61 62 	movabs $0x20656c6261746e69,%rax
  401e7d:	6c 65 20 
  401e80:	49 89 47 30          	mov    %rax,0x30(%r15)
  401e84:	48 b8 63 68 61 72 61 	movabs $0x6574636172616863,%rax
  401e8b:	63 74 65 
  401e8e:	49 89 47 38          	mov    %rax,0x38(%r15)
  401e92:	66 41 c7 47 40 72 2e 	movw   $0x2e72,0x40(%r15)
  401e99:	41 c6 47 42 00       	movb   $0x0,0x42(%r15)
  401e9e:	44 89 e7             	mov    %r12d,%edi
  401ea1:	e8 7a ec ff ff       	callq  400b20 <close@plt>
  401ea6:	b8 ff ff ff ff       	mov    $0xffffffff,%eax
  401eab:	e9 57 ff ff ff       	jmpq   401e07 <submitr+0x6c9>
  401eb0:	48 8d 9c 24 50 20 00 	lea    0x2050(%rsp),%rbx
  401eb7:	00 
  401eb8:	48 8d 84 24 50 40 00 	lea    0x4050(%rsp),%rax
  401ebf:	00 
  401ec0:	50                   	push   %rax
  401ec1:	ff 74 24 20          	pushq  0x20(%rsp)
  401ec5:	4c 8b 4c 24 20       	mov    0x20(%rsp),%r9
  401eca:	4c 8b 44 24 18       	mov    0x18(%rsp),%r8
  401ecf:	b9 90 26 40 00       	mov    $0x402690,%ecx
  401ed4:	ba 00 20 00 00       	mov    $0x2000,%edx
  401ed9:	be 01 00 00 00       	mov    $0x1,%esi
  401ede:	48 89 df             	mov    %rbx,%rdi
  401ee1:	b8 00 00 00 00       	mov    $0x0,%eax
  401ee6:	e8 45 ed ff ff       	callq  400c30 <__sprintf_chk@plt>
  401eeb:	b8 00 00 00 00       	mov    $0x0,%eax
  401ef0:	48 c7 c1 ff ff ff ff 	mov    $0xffffffffffffffff,%rcx
  401ef7:	48 89 df             	mov    %rbx,%rdi
  401efa:	f2 ae                	repnz scas %es:(%rdi),%al
  401efc:	48 89 c8             	mov    %rcx,%rax
  401eff:	48 f7 d0             	not    %rax
  401f02:	4c 8d 68 ff          	lea    -0x1(%rax),%r13
  401f06:	48 83 c4 10          	add    $0x10,%rsp
  401f0a:	4c 89 eb             	mov    %r13,%rbx
  401f0d:	48 8d ac 24 50 20 00 	lea    0x2050(%rsp),%rbp
  401f14:	00 
  401f15:	4d 85 ed             	test   %r13,%r13
  401f18:	0f 85 be fb ff ff    	jne    401adc <submitr+0x39e>
  401f1e:	e9 47 fc ff ff       	jmpq   401b6a <submitr+0x42c>
  401f23:	e8 d8 eb ff ff       	callq  400b00 <__stack_chk_fail@plt>
  401f28:	48 81 c4 68 a0 00 00 	add    $0xa068,%rsp
  401f2f:	5b                   	pop    %rbx
  401f30:	5d                   	pop    %rbp
  401f31:	41 5c                	pop    %r12
  401f33:	41 5d                	pop    %r13
  401f35:	41 5e                	pop    %r14
  401f37:	41 5f                	pop    %r15
  401f39:	c3                   	retq   

0000000000401f3a <init_timeout>:
  401f3a:	85 ff                	test   %edi,%edi
  401f3c:	74 22                	je     401f60 <init_timeout+0x26>
  401f3e:	53                   	push   %rbx
  401f3f:	89 fb                	mov    %edi,%ebx
  401f41:	be 1e 16 40 00       	mov    $0x40161e,%esi
  401f46:	bf 0e 00 00 00       	mov    $0xe,%edi
  401f4b:	e8 10 ec ff ff       	callq  400b60 <signal@plt>
  401f50:	85 db                	test   %ebx,%ebx
  401f52:	bf 00 00 00 00       	mov    $0x0,%edi
  401f57:	0f 49 fb             	cmovns %ebx,%edi
  401f5a:	e8 b1 eb ff ff       	callq  400b10 <alarm@plt>
  401f5f:	5b                   	pop    %rbx
  401f60:	f3 c3                	repz retq 

0000000000401f62 <init_driver>:
  401f62:	55                   	push   %rbp
  401f63:	53                   	push   %rbx
  401f64:	48 83 ec 28          	sub    $0x28,%rsp
  401f68:	48 89 fd             	mov    %rdi,%rbp
  401f6b:	64 48 8b 04 25 28 00 	mov    %fs:0x28,%rax
  401f72:	00 00 
  401f74:	48 89 44 24 18       	mov    %rax,0x18(%rsp)
  401f79:	31 c0                	xor    %eax,%eax
  401f7b:	be 01 00 00 00       	mov    $0x1,%esi
  401f80:	bf 0d 00 00 00       	mov    $0xd,%edi
  401f85:	e8 d6 eb ff ff       	callq  400b60 <signal@plt>
  401f8a:	be 01 00 00 00       	mov    $0x1,%esi
  401f8f:	bf 1d 00 00 00       	mov    $0x1d,%edi
  401f94:	e8 c7 eb ff ff       	callq  400b60 <signal@plt>
  401f99:	be 01 00 00 00       	mov    $0x1,%esi
  401f9e:	bf 1d 00 00 00       	mov    $0x1d,%edi
  401fa3:	e8 b8 eb ff ff       	callq  400b60 <signal@plt>
  401fa8:	ba 00 00 00 00       	mov    $0x0,%edx
  401fad:	be 01 00 00 00       	mov    $0x1,%esi
  401fb2:	bf 02 00 00 00       	mov    $0x2,%edi
  401fb7:	e8 84 ec ff ff       	callq  400c40 <socket@plt>
  401fbc:	85 c0                	test   %eax,%eax
  401fbe:	79 4f                	jns    40200f <init_driver+0xad>
  401fc0:	48 b8 45 72 72 6f 72 	movabs $0x43203a726f727245,%rax
  401fc7:	3a 20 43 
  401fca:	48 89 45 00          	mov    %rax,0x0(%rbp)
  401fce:	48 b8 6c 69 65 6e 74 	movabs $0x6e7520746e65696c,%rax
  401fd5:	20 75 6e 
  401fd8:	48 89 45 08          	mov    %rax,0x8(%rbp)
  401fdc:	48 b8 61 62 6c 65 20 	movabs $0x206f7420656c6261,%rax
  401fe3:	74 6f 20 
  401fe6:	48 89 45 10          	mov    %rax,0x10(%rbp)
  401fea:	48 b8 63 72 65 61 74 	movabs $0x7320657461657263,%rax
  401ff1:	65 20 73 
  401ff4:	48 89 45 18          	mov    %rax,0x18(%rbp)
  401ff8:	c7 45 20 6f 63 6b 65 	movl   $0x656b636f,0x20(%rbp)
  401fff:	66 c7 45 24 74 00    	movw   $0x74,0x24(%rbp)
  402005:	b8 ff ff ff ff       	mov    $0xffffffff,%eax
  40200a:	e9 0c 01 00 00       	jmpq   40211b <init_driver+0x1b9>
  40200f:	89 c3                	mov    %eax,%ebx
  402011:	bf 20 27 40 00       	mov    $0x402720,%edi
  402016:	e8 55 eb ff ff       	callq  400b70 <gethostbyname@plt>
  40201b:	48 85 c0             	test   %rax,%rax
  40201e:	75 68                	jne    402088 <init_driver+0x126>
  402020:	48 b8 45 72 72 6f 72 	movabs $0x44203a726f727245,%rax
  402027:	3a 20 44 
  40202a:	48 89 45 00          	mov    %rax,0x0(%rbp)
  40202e:	48 b8 4e 53 20 69 73 	movabs $0x6e7520736920534e,%rax
  402035:	20 75 6e 
  402038:	48 89 45 08          	mov    %rax,0x8(%rbp)
  40203c:	48 b8 61 62 6c 65 20 	movabs $0x206f7420656c6261,%rax
  402043:	74 6f 20 
  402046:	48 89 45 10          	mov    %rax,0x10(%rbp)
  40204a:	48 b8 72 65 73 6f 6c 	movabs $0x2065766c6f736572,%rax
  402051:	76 65 20 
  402054:	48 89 45 18          	mov    %rax,0x18(%rbp)
  402058:	48 b8 73 65 72 76 65 	movabs $0x6120726576726573,%rax
  40205f:	72 20 61 
  402062:	48 89 45 20          	mov    %rax,0x20(%rbp)
  402066:	c7 45 28 64 64 72 65 	movl   $0x65726464,0x28(%rbp)
  40206d:	66 c7 45 2c 73 73    	movw   $0x7373,0x2c(%rbp)
  402073:	c6 45 2e 00          	movb   $0x0,0x2e(%rbp)
  402077:	89 df                	mov    %ebx,%edi
  402079:	e8 a2 ea ff ff       	callq  400b20 <close@plt>
  40207e:	b8 ff ff ff ff       	mov    $0xffffffff,%eax
  402083:	e9 93 00 00 00       	jmpq   40211b <init_driver+0x1b9>
  402088:	48 c7 04 24 00 00 00 	movq   $0x0,(%rsp)
  40208f:	00 
  402090:	48 c7 44 24 08 00 00 	movq   $0x0,0x8(%rsp)
  402097:	00 00 
  402099:	66 c7 04 24 02 00    	movw   $0x2,(%rsp)
  40209f:	48 63 50 14          	movslq 0x14(%rax),%rdx
  4020a3:	48 8b 40 18          	mov    0x18(%rax),%rax
  4020a7:	48 8d 7c 24 04       	lea    0x4(%rsp),%rdi
  4020ac:	b9 0c 00 00 00       	mov    $0xc,%ecx
  4020b1:	48 8b 30             	mov    (%rax),%rsi
  4020b4:	e8 c7 ea ff ff       	callq  400b80 <__memmove_chk@plt>
  4020b9:	66 c7 44 24 02 3b 6e 	movw   $0x6e3b,0x2(%rsp)
  4020c0:	ba 10 00 00 00       	mov    $0x10,%edx
  4020c5:	48 89 e6             	mov    %rsp,%rsi
  4020c8:	89 df                	mov    %ebx,%edi
  4020ca:	e8 21 eb ff ff       	callq  400bf0 <connect@plt>
  4020cf:	85 c0                	test   %eax,%eax
  4020d1:	79 32                	jns    402105 <init_driver+0x1a3>
  4020d3:	41 b8 20 27 40 00    	mov    $0x402720,%r8d
  4020d9:	b9 e0 26 40 00       	mov    $0x4026e0,%ecx
  4020de:	48 c7 c2 ff ff ff ff 	mov    $0xffffffffffffffff,%rdx
  4020e5:	be 01 00 00 00       	mov    $0x1,%esi
  4020ea:	48 89 ef             	mov    %rbp,%rdi
  4020ed:	b8 00 00 00 00       	mov    $0x0,%eax
  4020f2:	e8 39 eb ff ff       	callq  400c30 <__sprintf_chk@plt>
  4020f7:	89 df                	mov    %ebx,%edi
  4020f9:	e8 22 ea ff ff       	callq  400b20 <close@plt>
  4020fe:	b8 ff ff ff ff       	mov    $0xffffffff,%eax
  402103:	eb 16                	jmp    40211b <init_driver+0x1b9>
  402105:	89 df                	mov    %ebx,%edi
  402107:	e8 14 ea ff ff       	callq  400b20 <close@plt>
  40210c:	66 c7 45 00 4f 4b    	movw   $0x4b4f,0x0(%rbp)
  402112:	c6 45 02 00          	movb   $0x0,0x2(%rbp)
  402116:	b8 00 00 00 00       	mov    $0x0,%eax
  40211b:	48 8b 4c 24 18       	mov    0x18(%rsp),%rcx
  402120:	64 48 33 0c 25 28 00 	xor    %fs:0x28,%rcx
  402127:	00 00 
  402129:	74 05                	je     402130 <init_driver+0x1ce>
  40212b:	e8 d0 e9 ff ff       	callq  400b00 <__stack_chk_fail@plt>
  402130:	48 83 c4 28          	add    $0x28,%rsp
  402134:	5b                   	pop    %rbx
  402135:	5d                   	pop    %rbp
  402136:	c3                   	retq   

0000000000402137 <driver_post>:
  402137:	53                   	push   %rbx
  402138:	48 89 cb             	mov    %rcx,%rbx
  40213b:	85 d2                	test   %edx,%edx
  40213d:	74 27                	je     402166 <driver_post+0x2f>
  40213f:	48 89 f2             	mov    %rsi,%rdx
  402142:	be 35 27 40 00       	mov    $0x402735,%esi
  402147:	bf 01 00 00 00       	mov    $0x1,%edi
  40214c:	b8 00 00 00 00       	mov    $0x0,%eax
  402151:	e8 6a ea ff ff       	callq  400bc0 <__printf_chk@plt>
  402156:	66 c7 03 4f 4b       	movw   $0x4b4f,(%rbx)
  40215b:	c6 43 02 00          	movb   $0x0,0x2(%rbx)
  40215f:	b8 00 00 00 00       	mov    $0x0,%eax
  402164:	eb 43                	jmp    4021a9 <driver_post+0x72>
  402166:	48 85 ff             	test   %rdi,%rdi
  402169:	74 30                	je     40219b <driver_post+0x64>
  40216b:	80 3f 00             	cmpb   $0x0,(%rdi)
  40216e:	74 2b                	je     40219b <driver_post+0x64>
  402170:	48 83 ec 08          	sub    $0x8,%rsp
  402174:	51                   	push   %rcx
  402175:	49 89 f1             	mov    %rsi,%r9
  402178:	41 b8 7a 22 40 00    	mov    $0x40227a,%r8d
  40217e:	48 89 f9             	mov    %rdi,%rcx
  402181:	ba 4c 27 40 00       	mov    $0x40274c,%edx
  402186:	be 6e 3b 00 00       	mov    $0x3b6e,%esi
  40218b:	bf 20 27 40 00       	mov    $0x402720,%edi
  402190:	e8 a9 f5 ff ff       	callq  40173e <submitr>
  402195:	48 83 c4 10          	add    $0x10,%rsp
  402199:	eb 0e                	jmp    4021a9 <driver_post+0x72>
  40219b:	66 c7 03 4f 4b       	movw   $0x4b4f,(%rbx)
  4021a0:	c6 43 02 00          	movb   $0x0,0x2(%rbx)
  4021a4:	b8 00 00 00 00       	mov    $0x0,%eax
  4021a9:	5b                   	pop    %rbx
  4021aa:	c3                   	retq   
  4021ab:	0f 1f 44 00 00       	nopl   0x0(%rax,%rax,1)

00000000004021b0 <__libc_csu_init>:
  4021b0:	41 57                	push   %r15
  4021b2:	41 56                	push   %r14
  4021b4:	41 89 ff             	mov    %edi,%r15d
  4021b7:	41 55                	push   %r13
  4021b9:	41 54                	push   %r12
  4021bb:	4c 8d 25 4e 0c 20 00 	lea    0x200c4e(%rip),%r12        # 602e10 <__frame_dummy_init_array_entry>
  4021c2:	55                   	push   %rbp
  4021c3:	48 8d 2d 4e 0c 20 00 	lea    0x200c4e(%rip),%rbp        # 602e18 <__init_array_end>
  4021ca:	53                   	push   %rbx
  4021cb:	49 89 f6             	mov    %rsi,%r14
  4021ce:	49 89 d5             	mov    %rdx,%r13
  4021d1:	4c 29 e5             	sub    %r12,%rbp
  4021d4:	48 83 ec 08          	sub    $0x8,%rsp
  4021d8:	48 c1 fd 03          	sar    $0x3,%rbp
  4021dc:	e8 9f e8 ff ff       	callq  400a80 <_init>
  4021e1:	48 85 ed             	test   %rbp,%rbp
  4021e4:	74 20                	je     402206 <__libc_csu_init+0x56>
  4021e6:	31 db                	xor    %ebx,%ebx
  4021e8:	0f 1f 84 00 00 00 00 	nopl   0x0(%rax,%rax,1)
  4021ef:	00 
  4021f0:	4c 89 ea             	mov    %r13,%rdx
  4021f3:	4c 89 f6             	mov    %r14,%rsi
  4021f6:	44 89 ff             	mov    %r15d,%edi
  4021f9:	41 ff 14 dc          	callq  *(%r12,%rbx,8)
  4021fd:	48 83 c3 01          	add    $0x1,%rbx
  402201:	48 39 eb             	cmp    %rbp,%rbx
  402204:	75 ea                	jne    4021f0 <__libc_csu_init+0x40>
  402206:	48 83 c4 08          	add    $0x8,%rsp
  40220a:	5b                   	pop    %rbx
  40220b:	5d                   	pop    %rbp
  40220c:	41 5c                	pop    %r12
  40220e:	41 5d                	pop    %r13
  402210:	41 5e                	pop    %r14
  402212:	41 5f                	pop    %r15
  402214:	c3                   	retq   
  402215:	90                   	nop
  402216:	66 2e 0f 1f 84 00 00 	nopw   %cs:0x0(%rax,%rax,1)
  40221d:	00 00 00 

0000000000402220 <__libc_csu_fini>:
  402220:	f3 c3                	repz retq 

Disassembly of section .fini:

0000000000402224 <_fini>:
  402224:	48 83 ec 08          	sub    $0x8,%rsp
  402228:	48 83 c4 08          	add    $0x8,%rsp
  40222c:	c3                   	retq   
